Certificate:
    Data:
        Version: 3 (0x2)
        Serial Number: 268435672 (0x100000d8)
    Signature Algorithm: sha256WithRSAEncryption
        Issuer: C=DE, ST=Hessen, O=privacyidea, CN=CA001
        Validity
            Not Before: Feb  8 21:16:58 2019 GMT
            Not After : Feb  8 21:16:58 2020 GMT
        Subject: C=DE, ST=Hessen, O=privacyidea, CN=requester.localdomain
        Subject Public Key Info:
            Public Key Algorithm: rsaEncryption
                Public-Key: (2048 bit)
                Modulus:
                    00:cd:be:14:4f:fa:ce:01:3f:42:22:1b:1d:9c:af:
                    dd:92:d2:7f:db:6c:b7:3e:39:43:43:6b:13:03:f1:
                    05:f4:07:74:bc:76:69:28:0b:af:19:8e:d7:fc:e3:
                    cd:c6:58:f2:ca:7f:08:6d:53:fc:07:02:44:24:c6:
                    b4:34:4c:8c:04:fe:33:0e:40:e2:20:ba:02:73:5a:
                    f7:f5:4f:63:6e:cc:c6:b6:df:54:1d:37:39:7d:51:
                    36:26:5f:bd:dc:3f:a8:8b:6b:a2:ae:b6:9d:d6:21:
                    e7:df:41:b8:7a:28:2a:68:48:ca:a8:2d:ed:e1:e9:
                    46:5e:5a:72:6d:b4:84:38:87:91:fd:94:11:0b:28:
                    84:c6:c2:2f:2a:fb:01:f9:36:7a:09:75:d1:33:88:
                    3c:73:41:5b:c8:bf:94:89:70:a1:f0:c0:b9:2e:50:
                    53:1e:b1:17:64:69:f4:2d:81:e0:a9:0d:0e:32:e9:
                    ba:55:8a:85:f1:1b:6f:49:79:b4:7f:88:c3:0d:3e:
                    54:88:9b:3d:1f:38:8c:04:f3:ee:6a:63:2b:f5:c6:
                    db:b4:83:aa:c4:78:41:3a:7d:4b:e1:c8:3e:71:ca:
                    1b:61:59:ea:c6:c4:ca:32:5e:c9:e9:bf:12:29:e6:
                    c6:c3:63:fe:a0:55:da:7a:f1:60:98:4d:26:ed:fa:
                    70:2d
                Exponent: 65537 (0x10001)
        X509v3 extensions:
            X509v3 Key Usage: 
                Digital Signature, Key Encipherment
            X509v3 Basic Constraints: 
                CA:FALSE
            Netscape Cert Type: 
                SSL Server
            Netscape Comment: 
                OpenSSL Generated Server Certificate
            X509v3 Subject Key Identifier: 
                53:3F:ED:5D:09:07:B3:65:7B:AB:45:C9:24:5B:09:77:80:0A:96:ED
            X509v3 Authority Key Identifier: 
                keyid:F4:A7:C0:CC:91:46:AF:64:F3:91:F2:27:F8:C8:B2:6F:8A:87:32:73
                DirName:/C=DE/ST=Hessen/O=privacyidea/CN=CA001
                serial:FB:C8:EB:AC:83:CD:12:07

            X509v3 Extended Key Usage: 
                TLS Web Server Authentication
    Signature Algorithm: sha256WithRSAEncryption
         17:7f:0c:cf:bc:5b:d6:9f:da:60:f0:ee:ec:30:35:7c:d6:31:
         ce:5e:d6:d1:7a:5d:ec:de:27:dc:4f:32:c7:29:1d:7c:4d:5c:
         8b:fc:80:df:ab:84:0b:67:84:7e:08:41:3c:40:e2:f1:f4:64:
         5b:9a:f0:4c:0a:77:04:b2:5a:4b:b2:f2:bd:ad:4e:17:cd:ff:
         f8:06:c9:c1:8d:e4:c4:76:28:23:1b:92:a5:64:7b:80:f4:5d:
         0c:37:d7:31:c2:e9:c9:02:0d:60:d2:fb:8a:27:9b:b0:a1:a2:
         83:f4:c6:7f:d5:c0:4f:d1:07:4b:b7:af:79:7d:20:c3:f1:2c:
         73:66:2f:1e:7c:ae:7c:01:f6:cf:6d:03:2f:d3:cf:29:da:15:
         dc:ed:75:56:43:ae:69:f1:93:80:12:bd:47:52:ac:20:a5:1c:
         95:42:f8:9e:5a:6f:39:b7:c0:50:ed:13:8d:c9:48:44:6f:08:
         a0:32:98:83:46:79:01:af:d3:b4:e5:6d:70:3c:11:6a:c8:bd:
         3d:61:6f:3d:5b:a5:19:64:a8:b2:0b:ba:7a:d7:50:77:c0:14:
         a2:3d:99:8f:a1:fd:24:c2:82:9b:bc:16:a5:df:64:e7:a4:91:
         d6:d6:8f:46:05:f1:57:f3:1e:e1:92:32:2e:bf:88:5d:2f:17:
         dd:c3:26:9f
-----BEGIN CERTIFICATE-----
MIIEJjCCAw6gAwIBAgIEEAAA2DANBgkqhkiG9w0BAQsFADBEMQswCQYDVQQGEwJE
RTEPMA0GA1UECAwGSGVzc2VuMRQwEgYDVQQKDAtwcml2YWN5aWRlYTEOMAwGA1UE
AwwFQ0EwMDEwHhcNMTkwMjA4MjExNjU4WhcNMjAwMjA4MjExNjU4WjBUMQswCQYD
VQQGEwJERTEPMA0GA1UECAwGSGVzc2VuMRQwEgYDVQQKDAtwcml2YWN5aWRlYTEe
MBwGA1UEAwwVcmVxdWVzdGVyLmxvY2FsZG9tYWluMIIBIjANBgkqhkiG9w0BAQEF
AAOCAQ8AMIIBCgKCAQEAzb4UT/rOAT9CIhsdnK/dktJ/22y3PjlDQ2sTA/EF9Ad0
vHZpKAuvGY7X/OPNxljyyn8IbVP8BwJEJMa0NEyMBP4zDkDiILoCc1r39U9jbszG
tt9UHTc5fVE2Jl+93D+oi2uirrad1iHn30G4eigqaEjKqC3t4elGXlpybbSEOIeR
/ZQRCyiExsIvKvsB+TZ6CXXRM4g8c0FbyL+UiXCh8MC5LlBTHrEXZGn0LYHgqQ0O
Mum6VYqF8RtvSXm0f4jDDT5UiJs9HziMBPPuamMr9cbbtIOqxHhBOn1L4cg+ccob
YVnqxsTKMl7J6b8SKebGw2P+oFXaevFgmE0m7fpwLQIDAQABo4IBDjCCAQowCwYD
VR0PBAQDAgWgMAkGA1UdEwQCMAAwEQYJYIZIAYb4QgEBBAQDAgZAMDMGCWCGSAGG
+EIBDQQmFiRPcGVuU1NMIEdlbmVyYXRlZCBTZXJ2ZXIgQ2VydGlmaWNhdGUwHQYD
VR0OBBYEFFM/7V0JB7Nle6tFySRbCXeACpbtMHQGA1UdIwRtMGuAFPSnwMyRRq9k
85HyJ/jIsm+KhzJzoUikRjBEMQswCQYDVQQGEwJERTEPMA0GA1UECAwGSGVzc2Vu
MRQwEgYDVQQKDAtwcml2YWN5aWRlYTEOMAwGA1UEAwwFQ0EwMDGCCQD7yOusg80S
BzATBgNVHSUEDDAKBggrBgEFBQcDATANBgkqhkiG9w0BAQsFAAOCAQEAF38Mz7xb
1p/aYPDu7DA1fNYxzl7W0Xpd7N4n3E8yxykdfE1ci/yA36uEC2eEfghBPEDi8fRk
W5rwTAp3BLJaS7Lyva1OF83/+AbJwY3kxHYoIxuSpWR7gPRdDDfXMcLpyQINYNL7
iiebsKGig/TGf9XAT9EHS7eveX0gw/Esc2YvHnyufAH2z20DL9PPKdoV3O11VkOu
afGTgBK9R1KsIKUclUL4nlpvObfAUO0TjclIRG8IoDKYg0Z5Aa/TtOVtcDwRasi9
PWFvPVulGWSosgu6etdQd8AUoj2Zj6H9JMKCm7wWpd9k56SR1taPRgXxV/Me4ZIy
Lr+IXS8X3cMmnw==
-----END CERTIFICATE-----
