Certificate:
    Data:
        Version: 3 (0x2)
        Serial Number: 268435688 (0x100000e8)
    Signature Algorithm: sha256WithRSAEncryption
        Issuer: C=DE, ST=Hessen, O=privacyidea, CN=CA001
        Validity
            Not Before: Feb  8 22:00:24 2019 GMT
            Not After : Feb  8 22:00:24 2020 GMT
        Subject: C=DE, ST=Hessen, O=privacyidea, CN=requester.localdomain
        Subject Public Key Info:
            Public Key Algorithm: rsaEncryption
                Public-Key: (2048 bit)
                Modulus:
                    00:cd:be:14:4f:fa:ce:01:3f:42:22:1b:1d:9c:af:
                    dd:92:d2:7f:db:6c:b7:3e:39:43:43:6b:13:03:f1:
                    05:f4:07:74:bc:76:69:28:0b:af:19:8e:d7:fc:e3:
                    cd:c6:58:f2:ca:7f:08:6d:53:fc:07:02:44:24:c6:
                    b4:34:4c:8c:04:fe:33:0e:40:e2:20:ba:02:73:5a:
                    f7:f5:4f:63:6e:cc:c6:b6:df:54:1d:37:39:7d:51:
                    36:26:5f:bd:dc:3f:a8:8b:6b:a2:ae:b6:9d:d6:21:
                    e7:df:41:b8:7a:28:2a:68:48:ca:a8:2d:ed:e1:e9:
                    46:5e:5a:72:6d:b4:84:38:87:91:fd:94:11:0b:28:
                    84:c6:c2:2f:2a:fb:01:f9:36:7a:09:75:d1:33:88:
                    3c:73:41:5b:c8:bf:94:89:70:a1:f0:c0:b9:2e:50:
                    53:1e:b1:17:64:69:f4:2d:81:e0:a9:0d:0e:32:e9:
                    ba:55:8a:85:f1:1b:6f:49:79:b4:7f:88:c3:0d:3e:
                    54:88:9b:3d:1f:38:8c:04:f3:ee:6a:63:2b:f5:c6:
                    db:b4:83:aa:c4:78:41:3a:7d:4b:e1:c8:3e:71:ca:
                    1b:61:59:ea:c6:c4:ca:32:5e:c9:e9:bf:12:29:e6:
                    c6:c3:63:fe:a0:55:da:7a:f1:60:98:4d:26:ed:fa:
                    70:2d
                Exponent: 65537 (0x10001)
        X509v3 extensions:
            X509v3 Key Usage: 
                Digital Signature, Key Encipherment
            X509v3 Basic Constraints: 
                CA:FALSE
            Netscape Cert Type: 
                SSL Server
            Netscape Comment: 
                OpenSSL Generated Server Certificate
            X509v3 Subject Key Identifier: 
                53:3F:ED:5D:09:07:B3:65:7B:AB:45:C9:24:5B:09:77:80:0A:96:ED
            X509v3 Authority Key Identifier: 
                keyid:F4:A7:C0:CC:91:46:AF:64:F3:91:F2:27:F8:C8:B2:6F:8A:87:32:73
                DirName:/C=DE/ST=Hessen/O=privacyidea/CN=CA001
                serial:FB:C8:EB:AC:83:CD:12:07

            X509v3 Extended Key Usage: 
                TLS Web Server Authentication
    Signature Algorithm: sha256WithRSAEncryption
         16:a4:1b:44:4a:f8:fd:64:11:c6:e4:29:32:1e:04:d6:4b:66:
         c0:e7:64:29:10:fc:19:00:fc:a5:41:5d:99:8f:e7:cc:fe:eb:
         70:e9:65:84:1f:e9:ba:cf:bd:f4:d2:fa:dc:22:36:d0:ce:66:
         43:2c:20:5c:be:e4:a5:8e:e8:b0:ca:84:c8:ad:94:0f:63:95:
         2d:3b:f2:62:ff:f7:13:d7:87:19:c6:4f:20:29:10:57:36:b0:
         fd:f5:82:78:1e:cf:9b:1b:02:fd:55:47:0f:77:27:1c:b9:99:
         ff:b8:1e:96:0e:bc:1e:6c:8c:fd:12:ae:73:a3:0a:fa:88:70:
         fd:e8:01:7b:f4:f8:65:af:a5:2e:9c:a0:f5:56:78:24:18:ee:
         ee:16:a3:7b:cf:45:7f:17:fc:ca:8c:b9:48:8e:6f:13:11:61:
         cf:1f:58:6f:25:8d:0b:c3:1e:1c:2c:55:63:7f:44:c3:66:35:
         c5:32:d0:27:3f:14:6f:a6:7c:e0:c2:ad:da:c2:5b:2f:35:28:
         9f:33:95:37:10:eb:e7:f2:b2:21:fb:0b:26:c1:8c:96:3b:b2:
         ac:07:45:f9:5b:40:24:08:8d:a4:94:f6:64:0c:c5:b7:0b:ed:
         f7:c4:0e:22:b9:39:40:bb:76:9e:ef:2a:b7:14:ea:82:c6:a1:
         43:34:dd:ae
-----BEGIN CERTIFICATE-----
MIIEJjCCAw6gAwIBAgIEEAAA6DANBgkqhkiG9w0BAQsFADBEMQswCQYDVQQGEwJE
RTEPMA0GA1UECAwGSGVzc2VuMRQwEgYDVQQKDAtwcml2YWN5aWRlYTEOMAwGA1UE
AwwFQ0EwMDEwHhcNMTkwMjA4MjIwMDI0WhcNMjAwMjA4MjIwMDI0WjBUMQswCQYD
VQQGEwJERTEPMA0GA1UECAwGSGVzc2VuMRQwEgYDVQQKDAtwcml2YWN5aWRlYTEe
MBwGA1UEAwwVcmVxdWVzdGVyLmxvY2FsZG9tYWluMIIBIjANBgkqhkiG9w0BAQEF
AAOCAQ8AMIIBCgKCAQEAzb4UT/rOAT9CIhsdnK/dktJ/22y3PjlDQ2sTA/EF9Ad0
vHZpKAuvGY7X/OPNxljyyn8IbVP8BwJEJMa0NEyMBP4zDkDiILoCc1r39U9jbszG
tt9UHTc5fVE2Jl+93D+oi2uirrad1iHn30G4eigqaEjKqC3t4elGXlpybbSEOIeR
/ZQRCyiExsIvKvsB+TZ6CXXRM4g8c0FbyL+UiXCh8MC5LlBTHrEXZGn0LYHgqQ0O
Mum6VYqF8RtvSXm0f4jDDT5UiJs9HziMBPPuamMr9cbbtIOqxHhBOn1L4cg+ccob
YVnqxsTKMl7J6b8SKebGw2P+oFXaevFgmE0m7fpwLQIDAQABo4IBDjCCAQowCwYD
VR0PBAQDAgWgMAkGA1UdEwQCMAAwEQYJYIZIAYb4QgEBBAQDAgZAMDMGCWCGSAGG
+EIBDQQmFiRPcGVuU1NMIEdlbmVyYXRlZCBTZXJ2ZXIgQ2VydGlmaWNhdGUwHQYD
VR0OBBYEFFM/7V0JB7Nle6tFySRbCXeACpbtMHQGA1UdIwRtMGuAFPSnwMyRRq9k
85HyJ/jIsm+KhzJzoUikRjBEMQswCQYDVQQGEwJERTEPMA0GA1UECAwGSGVzc2Vu
MRQwEgYDVQQKDAtwcml2YWN5aWRlYTEOMAwGA1UEAwwFQ0EwMDGCCQD7yOusg80S
BzATBgNVHSUEDDAKBggrBgEFBQcDATANBgkqhkiG9w0BAQsFAAOCAQEAFqQbREr4
/WQRxuQpMh4E1ktmwOdkKRD8GQD8pUFdmY/nzP7rcOllhB/pus+99NL63CI20M5m
QywgXL7kpY7osMqEyK2UD2OVLTvyYv/3E9eHGcZPICkQVzaw/fWCeB7PmxsC/VVH
D3cnHLmZ/7gelg68HmyM/RKuc6MK+ohw/egBe/T4Za+lLpyg9VZ4JBju7haje89F
fxf8yoy5SI5vExFhzx9YbyWNC8MeHCxVY39Ew2Y1xTLQJz8Ub6Z84MKt2sJbLzUo
nzOVNxDr5/KyIfsLJsGMljuyrAdF+VtAJAiNpJT2ZAzFtwvt98QOIrk5QLt2nu8q
txTqgsahQzTdrg==
-----END CERTIFICATE-----
