Certificate:
    Data:
        Version: 3 (0x2)
        Serial Number: 268435668 (0x100000d4)
    Signature Algorithm: sha256WithRSAEncryption
        Issuer: C=DE, ST=Hessen, O=privacyidea, CN=CA001
        Validity
            Not Before: Mar  1 15:18:38 2019 GMT
            Not After : Mar 20 15:18:38 2021 GMT
        Subject: CN=Steve Test/emailAddress=steve@openssl.org
        Subject Public Key Info:
            Public Key Algorithm: rsaEncryption
                Public-Key: (2048 bit)
                Modulus:
                    00:d2:81:89:20:51:48:0f:73:f4:11:32:24:d5:1f:
                    1c:fd:5c:f5:b6:e6:c5:f0:52:81:dc:d2:af:66:4a:
                    7c:93:31:61:5c:af:d1:6d:06:70:03:60:7c:72:0c:
                    88:dd:49:cd:9e:02:6c:d2:5a:d7:53:0f:f3:da:be:
                    69:64:b5:0f:0c:00:e3:b3:50:47:a3:b3:9b:ba:13:
                    50:d6:58:5a:4b:ab:39:e0:11:ca:0a:27:67:03:78:
                    22:66:6d:92:1e:1b:5c:49:ae:e6:6b:d1:8e:3b:9d:
                    06:d3:c6:ac:4d:53:43:10:ab:e8:96:c1:87:82:97:
                    99:8f:20:d3:99:12:37:31:84:e1:8a:ff:29:03:5f:
                    22:90:3e:7f:9b:e0:20:c1:ad:dc:ae:4c:39:1a:31:
                    96:17:02:8c:b2:d9:b4:0d:20:12:9b:7d:86:54:fd:
                    33:fd:c1:2a:62:46:f8:60:96:cf:6e:01:6f:22:df:
                    13:47:e7:97:ec:05:72:23:a3:62:f8:fa:ef:ac:9c:
                    72:f0:37:cb:2f:37:cf:90:a8:27:51:86:c6:d7:78:
                    08:8f:7e:25:a2:15:70:a2:fb:1c:b6:15:5e:a0:97:
                    8b:81:4c:09:28:8a:27:3b:94:bc:71:db:5b:71:37:
                    9a:2b:16:e0:6f:b5:c9:f5:4b:4f:20:ba:65:cf:af:
                    ad:ad
                Exponent: 65537 (0x10001)
        X509v3 extensions:
            X509v3 Key Usage: 
                Digital Signature, Key Encipherment
            X509v3 Basic Constraints: 
                CA:FALSE
            Netscape Cert Type: 
                SSL Server
            Netscape Comment: 
                OpenSSL Generated Server Certificate
            X509v3 Subject Key Identifier: 
                E5:25:6D:3E:AF:0D:DD:3F:4C:F2:45:19:39:D5:14:DB:7E:9C:C0:AD
            X509v3 Authority Key Identifier: 
                keyid:F4:A7:C0:CC:91:46:AF:64:F3:91:F2:27:F8:C8:B2:6F:8A:87:32:73
                DirName:/C=DE/ST=Hessen/O=privacyidea/CN=CA001
                serial:FB:C8:EB:AC:83:CD:12:07

            X509v3 Extended Key Usage: 
                TLS Web Server Authentication
    Signature Algorithm: sha256WithRSAEncryption
         a8:27:2e:09:25:3f:b4:2d:5b:20:fb:06:c6:7e:af:0d:a4:5b:
         a7:e8:a4:c7:3f:67:14:1b:da:57:c0:34:dd:f1:53:e6:df:26:
         4f:c5:fb:b5:74:ba:a6:e4:c2:14:98:7c:1c:23:c7:24:87:7c:
         d4:96:17:c0:cd:a8:d3:4b:15:54:9c:a2:42:e8:af:83:eb:c4:
         99:c1:d7:41:02:e4:64:64:e3:54:e2:9a:7e:34:d3:46:bb:27:
         67:6a:1f:85:b8:0a:0b:10:3e:8c:50:88:47:63:f8:8d:fa:34:
         5f:06:be:0c:0c:42:a3:3a:f3:27:08:21:00:6d:81:f8:92:3e:
         f4:62:a1:ff:e7:3d:ac:34:22:80:84:ac:02:49:62:83:34:7d:
         af:61:00:01:22:ec:69:58:12:17:ba:14:22:30:66:77:a6:59:
         89:2c:5e:d8:a2:5c:32:2d:36:fc:6e:da:71:fe:a1:a1:a7:37:
         10:ea:00:2c:fb:22:29:9e:0f:dd:d1:d7:fb:1b:c0:00:b0:3c:
         45:6a:28:e2:e9:df:a0:00:58:69:35:a6:b5:07:3e:ce:78:4a:
         c5:db:09:8c:b4:0a:e8:c5:8a:8a:8b:d8:67:86:47:95:c0:3a:
         8b:6e:86:59:b1:8c:21:19:f3:14:a4:28:19:1d:5f:47:f6:04:
         4e:ec:51:07
-----BEGIN CERTIFICATE-----
MIIECTCCAvGgAwIBAgIEEAAA1DANBgkqhkiG9w0BAQsFADBEMQswCQYDVQQGEwJE
RTEPMA0GA1UECAwGSGVzc2VuMRQwEgYDVQQKDAtwcml2YWN5aWRlYTEOMAwGA1UE
AwwFQ0EwMDEwHhcNMTkwMzAxMTUxODM4WhcNMjEwMzIwMTUxODM4WjA3MRMwEQYD
VQQDDApTdGV2ZSBUZXN0MSAwHgYJKoZIhvcNAQkBFhFzdGV2ZUBvcGVuc3NsLm9y
ZzCCASIwDQYJKoZIhvcNAQEBBQADggEPADCCAQoCggEBANKBiSBRSA9z9BEyJNUf
HP1c9bbmxfBSgdzSr2ZKfJMxYVyv0W0GcANgfHIMiN1JzZ4CbNJa11MP89q+aWS1
DwwA47NQR6Ozm7oTUNZYWkurOeARygonZwN4ImZtkh4bXEmu5mvRjjudBtPGrE1T
QxCr6JbBh4KXmY8g05kSNzGE4Yr/KQNfIpA+f5vgIMGt3K5MORoxlhcCjLLZtA0g
Ept9hlT9M/3BKmJG+GCWz24BbyLfE0fnl+wFciOjYvj676yccvA3yy83z5CoJ1GG
xtd4CI9+JaIVcKL7HLYVXqCXi4FMCSiKJzuUvHHbW3E3misW4G+1yfVLTyC6Zc+v
ra0CAwEAAaOCAQ4wggEKMAsGA1UdDwQEAwIFoDAJBgNVHRMEAjAAMBEGCWCGSAGG
+EIBAQQEAwIGQDAzBglghkgBhvhCAQ0EJhYkT3BlblNTTCBHZW5lcmF0ZWQgU2Vy
dmVyIENlcnRpZmljYXRlMB0GA1UdDgQWBBTlJW0+rw3dP0zyRRk51RTbfpzArTB0
BgNVHSMEbTBrgBT0p8DMkUavZPOR8if4yLJviocyc6FIpEYwRDELMAkGA1UEBhMC
REUxDzANBgNVBAgMBkhlc3NlbjEUMBIGA1UECgwLcHJpdmFjeWlkZWExDjAMBgNV
BAMMBUNBMDAxggkA+8jrrIPNEgcwEwYDVR0lBAwwCgYIKwYBBQUHAwEwDQYJKoZI
hvcNAQELBQADggEBAKgnLgklP7QtWyD7BsZ+rw2kW6fopMc/ZxQb2lfANN3xU+bf
Jk/F+7V0uqbkwhSYfBwjxySHfNSWF8DNqNNLFVScokLor4PrxJnB10EC5GRk41Ti
mn4000a7J2dqH4W4CgsQPoxQiEdj+I36NF8GvgwMQqM68ycIIQBtgfiSPvRiof/n
Paw0IoCErAJJYoM0fa9hAAEi7GlYEhe6FCIwZnemWYksXtiiXDItNvxu2nH+oaGn
NxDqACz7IimeD93R1/sbwACwPEVqKOLp36AAWGk1prUHPs54SsXbCYy0CujFioqL
2GeGR5XAOotuhlmxjCEZ8xSkKBkdX0f2BE7sUQc=
-----END CERTIFICATE-----
