Certificate:
    Data:
        Version: 3 (0x2)
        Serial Number: 268435665 (0x100000d1)
    Signature Algorithm: sha256WithRSAEncryption
        Issuer: C=DE, ST=Hessen, O=privacyidea, CN=CA001
        Validity
            Not Before: Mar  1 15:18:37 2019 GMT
            Not After : Feb 29 15:18:37 2020 GMT
        Subject: C=DE, ST=Hessen, O=privacyidea, CN=requester.localdomain
        Subject Public Key Info:
            Public Key Algorithm: rsaEncryption
                Public-Key: (2048 bit)
                Modulus:
                    00:cd:be:14:4f:fa:ce:01:3f:42:22:1b:1d:9c:af:
                    dd:92:d2:7f:db:6c:b7:3e:39:43:43:6b:13:03:f1:
                    05:f4:07:74:bc:76:69:28:0b:af:19:8e:d7:fc:e3:
                    cd:c6:58:f2:ca:7f:08:6d:53:fc:07:02:44:24:c6:
                    b4:34:4c:8c:04:fe:33:0e:40:e2:20:ba:02:73:5a:
                    f7:f5:4f:63:6e:cc:c6:b6:df:54:1d:37:39:7d:51:
                    36:26:5f:bd:dc:3f:a8:8b:6b:a2:ae:b6:9d:d6:21:
                    e7:df:41:b8:7a:28:2a:68:48:ca:a8:2d:ed:e1:e9:
                    46:5e:5a:72:6d:b4:84:38:87:91:fd:94:11:0b:28:
                    84:c6:c2:2f:2a:fb:01:f9:36:7a:09:75:d1:33:88:
                    3c:73:41:5b:c8:bf:94:89:70:a1:f0:c0:b9:2e:50:
                    53:1e:b1:17:64:69:f4:2d:81:e0:a9:0d:0e:32:e9:
                    ba:55:8a:85:f1:1b:6f:49:79:b4:7f:88:c3:0d:3e:
                    54:88:9b:3d:1f:38:8c:04:f3:ee:6a:63:2b:f5:c6:
                    db:b4:83:aa:c4:78:41:3a:7d:4b:e1:c8:3e:71:ca:
                    1b:61:59:ea:c6:c4:ca:32:5e:c9:e9:bf:12:29:e6:
                    c6:c3:63:fe:a0:55:da:7a:f1:60:98:4d:26:ed:fa:
                    70:2d
                Exponent: 65537 (0x10001)
        X509v3 extensions:
            X509v3 Key Usage: 
                Digital Signature, Key Encipherment
            X509v3 Basic Constraints: 
                CA:FALSE
            Netscape Cert Type: 
                SSL Server
            Netscape Comment: 
                OpenSSL Generated Server Certificate
            X509v3 Subject Key Identifier: 
                53:3F:ED:5D:09:07:B3:65:7B:AB:45:C9:24:5B:09:77:80:0A:96:ED
            X509v3 Authority Key Identifier: 
                keyid:F4:A7:C0:CC:91:46:AF:64:F3:91:F2:27:F8:C8:B2:6F:8A:87:32:73
                DirName:/C=DE/ST=Hessen/O=privacyidea/CN=CA001
                serial:FB:C8:EB:AC:83:CD:12:07

            X509v3 Extended Key Usage: 
                TLS Web Server Authentication
    Signature Algorithm: sha256WithRSAEncryption
         88:4b:8e:58:23:81:ae:21:2c:d7:9a:38:ae:a2:14:99:be:c1:
         b4:a5:4b:25:fe:43:fa:b7:47:01:74:3b:ec:47:af:6e:b1:96:
         28:01:e1:92:93:ec:74:9e:c7:2b:b4:ee:0e:06:d0:43:6a:78:
         cc:ec:6d:1c:3d:ea:6f:9f:59:69:35:df:9b:f0:43:9b:ef:17:
         4a:0d:c9:64:00:04:4e:4a:eb:3a:b0:7b:54:bc:45:61:6e:9c:
         6a:27:13:0d:28:cc:cd:ce:bd:37:df:b5:25:fc:77:59:38:98:
         39:a6:b6:48:79:6d:df:e6:5c:45:33:33:72:02:c8:49:8c:26:
         66:62:58:d8:33:cd:6f:d1:f0:39:57:0a:38:fc:74:7d:fa:7b:
         1d:88:13:85:b8:33:32:e2:bc:2f:ac:ea:0f:b5:bd:8f:25:7b:
         35:85:d2:6c:53:c6:ef:09:ad:5c:70:18:13:74:82:27:af:af:
         28:59:a0:55:7e:05:34:20:c6:bf:77:3c:a4:a7:2b:1f:35:ef:
         01:49:5a:31:82:18:d4:57:a9:a9:cc:36:9f:a3:02:d6:0d:99:
         ae:67:c4:75:c6:89:ed:70:e3:e1:fd:15:eb:ad:e3:f0:1c:9f:
         e0:03:08:92:36:60:0f:6c:fd:1a:5d:cb:33:89:98:fb:45:af:
         9e:3b:eb:91
-----BEGIN CERTIFICATE-----
MIIEJjCCAw6gAwIBAgIEEAAA0TANBgkqhkiG9w0BAQsFADBEMQswCQYDVQQGEwJE
RTEPMA0GA1UECAwGSGVzc2VuMRQwEgYDVQQKDAtwcml2YWN5aWRlYTEOMAwGA1UE
AwwFQ0EwMDEwHhcNMTkwMzAxMTUxODM3WhcNMjAwMjI5MTUxODM3WjBUMQswCQYD
VQQGEwJERTEPMA0GA1UECAwGSGVzc2VuMRQwEgYDVQQKDAtwcml2YWN5aWRlYTEe
MBwGA1UEAwwVcmVxdWVzdGVyLmxvY2FsZG9tYWluMIIBIjANBgkqhkiG9w0BAQEF
AAOCAQ8AMIIBCgKCAQEAzb4UT/rOAT9CIhsdnK/dktJ/22y3PjlDQ2sTA/EF9Ad0
vHZpKAuvGY7X/OPNxljyyn8IbVP8BwJEJMa0NEyMBP4zDkDiILoCc1r39U9jbszG
tt9UHTc5fVE2Jl+93D+oi2uirrad1iHn30G4eigqaEjKqC3t4elGXlpybbSEOIeR
/ZQRCyiExsIvKvsB+TZ6CXXRM4g8c0FbyL+UiXCh8MC5LlBTHrEXZGn0LYHgqQ0O
Mum6VYqF8RtvSXm0f4jDDT5UiJs9HziMBPPuamMr9cbbtIOqxHhBOn1L4cg+ccob
YVnqxsTKMl7J6b8SKebGw2P+oFXaevFgmE0m7fpwLQIDAQABo4IBDjCCAQowCwYD
VR0PBAQDAgWgMAkGA1UdEwQCMAAwEQYJYIZIAYb4QgEBBAQDAgZAMDMGCWCGSAGG
+EIBDQQmFiRPcGVuU1NMIEdlbmVyYXRlZCBTZXJ2ZXIgQ2VydGlmaWNhdGUwHQYD
VR0OBBYEFFM/7V0JB7Nle6tFySRbCXeACpbtMHQGA1UdIwRtMGuAFPSnwMyRRq9k
85HyJ/jIsm+KhzJzoUikRjBEMQswCQYDVQQGEwJERTEPMA0GA1UECAwGSGVzc2Vu
MRQwEgYDVQQKDAtwcml2YWN5aWRlYTEOMAwGA1UEAwwFQ0EwMDGCCQD7yOusg80S
BzATBgNVHSUEDDAKBggrBgEFBQcDATANBgkqhkiG9w0BAQsFAAOCAQEAiEuOWCOB
riEs15o4rqIUmb7BtKVLJf5D+rdHAXQ77EevbrGWKAHhkpPsdJ7HK7TuDgbQQ2p4
zOxtHD3qb59ZaTXfm/BDm+8XSg3JZAAETkrrOrB7VLxFYW6caicTDSjMzc69N9+1
Jfx3WTiYOaa2SHlt3+ZcRTMzcgLISYwmZmJY2DPNb9HwOVcKOPx0ffp7HYgThbgz
MuK8L6zqD7W9jyV7NYXSbFPG7wmtXHAYE3SCJ6+vKFmgVX4FNCDGv3c8pKcrHzXv
AUlaMYIY1Fepqcw2n6MC1g2ZrmfEdcaJ7XDj4f0V663j8Byf4AMIkjZgD2z9Gl3L
M4mY+0WvnjvrkQ==
-----END CERTIFICATE-----
