Certificate:
    Data:
        Version: 3 (0x2)
        Serial Number: 268435678 (0x100000de)
    Signature Algorithm: sha256WithRSAEncryption
        Issuer: C=DE, ST=Hessen, O=privacyidea, CN=CA001
        Validity
            Not Before: Feb  8 21:31:18 2019 GMT
            Not After : Feb  8 21:31:18 2020 GMT
        Subject: CN=selfservice,CN=user,O=realm1/emailAddress=meine
        Subject Public Key Info:
            Public Key Algorithm: rsaEncryption
                Public-Key: (2048 bit)
                Modulus:
                    00:cf:3c:d4:33:0e:12:c4:e6:da:cd:b6:56:a1:1c:
                    26:bb:26:1c:8a:4a:73:a8:58:8a:b6:1e:b3:8b:99:
                    d2:1d:07:c2:92:89:79:c0:69:d8:c8:df:28:61:98:
                    1e:b3:fe:ae:2b:bd:78:a9:f7:6e:47:dc:a3:a0:16:
                    8c:85:02:c1:4e:92:fd:72:6e:f0:c8:03:29:9b:b8:
                    00:6e:c0:83:95:c8:34:20:36:9c:b3:e5:e4:e6:76:
                    73:a3:1a:ad:40:96:e0:53:54:00:ec:76:79:9a:c6:
                    0d:7e:b6:bd:29:ec:83:f3:cb:89:a4:cb:6c:00:ba:
                    0c:c5:78:0f:ff:69:b8:94:f4:04:70:43:3f:d8:9e:
                    d7:a7:fb:5d:ce:75:8e:da:e7:c4:07:b1:9d:de:6f:
                    88:4b:b6:4d:9a:cf:f9:bc:fa:9f:cd:32:6d:f6:3a:
                    0b:0d:23:42:78:ec:97:42:bf:0e:4d:60:56:e1:d3:
                    02:f2:19:cb:84:57:90:e5:70:a1:a2:83:35:86:e2:
                    da:86:9f:f9:8a:c4:79:b3:52:28:da:cb:bb:34:ca:
                    d3:da:91:4a:cf:8d:76:a2:b2:6b:9b:f9:96:fd:09:
                    2a:da:11:23:4d:f0:cb:d6:b2:b1:0e:12:6c:9a:19:
                    65:98:87:ca:e4:ee:24:ce:44:ac:90:8f:9d:1b:c5:
                    2a:9d
                Exponent: 65537 (0x10001)
        X509v3 extensions:
            X509v3 Key Usage: 
                Digital Signature, Key Encipherment
            X509v3 Basic Constraints: 
                CA:FALSE
            Netscape Cert Type: 
                SSL Server
            Netscape Comment: 
                OpenSSL Generated Server Certificate
            X509v3 Subject Key Identifier: 
                4D:07:90:AD:FF:1D:0D:E7:1A:DD:D6:2E:FA:BA:34:CB:AA:1F:24:C6
            X509v3 Authority Key Identifier: 
                keyid:F4:A7:C0:CC:91:46:AF:64:F3:91:F2:27:F8:C8:B2:6F:8A:87:32:73
                DirName:/C=DE/ST=Hessen/O=privacyidea/CN=CA001
                serial:FB:C8:EB:AC:83:CD:12:07

            X509v3 Extended Key Usage: 
                TLS Web Server Authentication
    Signature Algorithm: sha256WithRSAEncryption
         be:04:32:f2:bf:0a:86:78:29:99:3d:af:a0:71:43:fe:78:d8:
         47:d0:b4:80:82:96:fe:e0:d8:ec:f0:9a:13:0d:d0:a5:13:fa:
         f4:ff:c2:86:c3:64:a7:f9:8b:10:58:92:e6:3f:cd:85:52:4f:
         1b:ff:d7:04:3e:70:01:8c:43:78:55:cd:19:fb:a0:98:5a:24:
         bc:99:78:62:85:22:76:c6:d2:fc:aa:da:8d:b5:1c:3a:a8:e2:
         dc:6f:0f:37:3c:33:01:da:26:76:a4:f6:7e:81:01:53:b8:8f:
         ff:42:24:27:47:a5:21:30:f1:cb:fa:0d:5a:1a:36:df:e2:6b:
         dd:b3:ed:77:e1:8e:e0:39:61:7b:69:74:bd:68:2d:4d:6a:50:
         8a:94:a8:40:a8:00:2b:d1:b5:4b:50:75:7d:29:d0:ab:0a:81:
         36:20:a2:42:2f:67:f6:66:a5:3b:64:61:19:fe:c8:b7:0e:98:
         2b:2e:80:03:19:63:de:b0:04:f9:23:51:0c:89:c0:1c:a2:d7:
         5f:14:d6:4c:ab:2e:3b:fc:15:42:c4:eb:12:35:cb:60:60:67:
         95:3c:15:79:bf:e1:f8:dd:11:87:16:87:67:cd:2c:92:73:07:
         0a:78:f5:27:b5:80:cb:f4:9a:30:da:7b:b2:de:95:98:98:b5:
         a3:ff:ba:99
-----BEGIN CERTIFICATE-----
MIIEDzCCAvegAwIBAgIEEAAA3jANBgkqhkiG9w0BAQsFADBEMQswCQYDVQQGEwJE
RTEPMA0GA1UECAwGSGVzc2VuMRQwEgYDVQQKDAtwcml2YWN5aWRlYTEOMAwGA1UE
AwwFQ0EwMDEwHhcNMTkwMjA4MjEzMTE4WhcNMjAwMjA4MjEzMTE4WjA9MSUwIwYD
VQQDDBxzZWxmc2VydmljZSxDTj11c2VyLE89cmVhbG0xMRQwEgYJKoZIhvcNAQkB
FgVtZWluZTCCASIwDQYJKoZIhvcNAQEBBQADggEPADCCAQoCggEBAM881DMOEsTm
2s22VqEcJrsmHIpKc6hYirYes4uZ0h0HwpKJecBp2MjfKGGYHrP+riu9eKn3bkfc
o6AWjIUCwU6S/XJu8MgDKZu4AG7Ag5XINCA2nLPl5OZ2c6MarUCW4FNUAOx2eZrG
DX62vSnsg/PLiaTLbAC6DMV4D/9puJT0BHBDP9ie16f7Xc51jtrnxAexnd5viEu2
TZrP+bz6n80ybfY6Cw0jQnjsl0K/Dk1gVuHTAvIZy4RXkOVwoaKDNYbi2oaf+YrE
ebNSKNrLuzTK09qRSs+NdqKya5v5lv0JKtoRI03wy9aysQ4SbJoZZZiHyuTuJM5E
rJCPnRvFKp0CAwEAAaOCAQ4wggEKMAsGA1UdDwQEAwIFoDAJBgNVHRMEAjAAMBEG
CWCGSAGG+EIBAQQEAwIGQDAzBglghkgBhvhCAQ0EJhYkT3BlblNTTCBHZW5lcmF0
ZWQgU2VydmVyIENlcnRpZmljYXRlMB0GA1UdDgQWBBRNB5Ct/x0N5xrd1i76ujTL
qh8kxjB0BgNVHSMEbTBrgBT0p8DMkUavZPOR8if4yLJviocyc6FIpEYwRDELMAkG
A1UEBhMCREUxDzANBgNVBAgMBkhlc3NlbjEUMBIGA1UECgwLcHJpdmFjeWlkZWEx
DjAMBgNVBAMMBUNBMDAxggkA+8jrrIPNEgcwEwYDVR0lBAwwCgYIKwYBBQUHAwEw
DQYJKoZIhvcNAQELBQADggEBAL4EMvK/CoZ4KZk9r6BxQ/542EfQtICClv7g2Ozw
mhMN0KUT+vT/wobDZKf5ixBYkuY/zYVSTxv/1wQ+cAGMQ3hVzRn7oJhaJLyZeGKF
InbG0vyq2o21HDqo4txvDzc8MwHaJnak9n6BAVO4j/9CJCdHpSEw8cv6DVoaNt/i
a92z7XfhjuA5YXtpdL1oLU1qUIqUqECoACvRtUtQdX0p0KsKgTYgokIvZ/ZmpTtk
YRn+yLcOmCsugAMZY96wBPkjUQyJwByi118U1kyrLjv8FULE6xI1y2BgZ5U8FXm/
4fjdEYcWh2fNLJJzBwp49Se1gMv0mjDae7LelZiYtaP/upk=
-----END CERTIFICATE-----
