Certificate:
    Data:
        Version: 3 (0x2)
        Serial Number: 268435685 (0x100000e5)
    Signature Algorithm: sha256WithRSAEncryption
        Issuer: C=DE, ST=Hessen, O=privacyidea, CN=CA001
        Validity
            Not Before: Feb  8 21:41:31 2019 GMT
            Not After : Feb  8 21:41:31 2020 GMT
        Subject: OU=realm1, CN=cornelius/emailAddress=user@localhost.localdomain
        Subject Public Key Info:
            Public Key Algorithm: rsaEncryption
                Public-Key: (2048 bit)
                Modulus:
                    00:be:4a:04:7e:5b:f2:a2:3f:59:9f:f5:ea:cf:a2:
                    48:55:d9:b3:46:aa:cf:2c:04:90:68:e0:d6:14:0d:
                    44:ad:26:00:77:76:b5:87:8a:f8:18:0c:28:b8:32:
                    90:da:bf:cd:c5:15:1f:04:f7:e0:c8:76:e5:b4:47:
                    2d:65:d3:7b:84:80:e3:6c:8a:59:ef:85:3a:ed:0d:
                    b1:5e:af:82:6d:7b:18:56:1b:8b:07:d2:77:84:18:
                    95:de:84:0c:4e:cb:e5:b4:64:b3:8f:88:94:2b:0f:
                    16:4e:33:53:fb:a5:6d:67:03:4e:00:2c:d6:70:c4:
                    93:08:ab:25:b6:c7:ac:c2:56:23:f3:72:f9:5d:eb:
                    f1:da:67:f6:34:54:e2:ca:21:67:dc:47:ba:e4:00:
                    01:09:4d:78:64:c1:7d:02:15:4c:6c:f4:71:66:66:
                    fa:9f:3f:d3:43:37:e5:ab:f9:23:c5:71:a6:6f:3b:
                    64:f5:f5:f1:57:85:67:17:3d:22:99:73:a5:b7:eb:
                    57:6e:bd:21:44:91:81:39:59:b4:6d:fa:dd:58:4d:
                    4d:7f:b2:d3:7c:98:02:d1:6f:3a:ab:c5:73:b4:25:
                    7b:88:16:ea:49:a5:09:f1:a9:6c:5c:f1:d7:af:f6:
                    74:65:5c:9c:22:69:da:0c:32:e8:21:82:b8:29:e4:
                    44:7b
                Exponent: 65537 (0x10001)
        X509v3 extensions:
            X509v3 Key Usage: 
                Digital Signature, Key Encipherment
            X509v3 Basic Constraints: 
                CA:FALSE
            Netscape Cert Type: 
                SSL Server
            Netscape Comment: 
                OpenSSL Generated Server Certificate
            X509v3 Subject Key Identifier: 
                72:5F:EF:57:9F:5F:4A:85:77:78:9F:AA:5F:64:CA:4F:CD:54:D8:E1
            X509v3 Authority Key Identifier: 
                keyid:F4:A7:C0:CC:91:46:AF:64:F3:91:F2:27:F8:C8:B2:6F:8A:87:32:73
                DirName:/C=DE/ST=Hessen/O=privacyidea/CN=CA001
                serial:FB:C8:EB:AC:83:CD:12:07

            X509v3 Extended Key Usage: 
                TLS Web Server Authentication
    Signature Algorithm: sha256WithRSAEncryption
         9a:57:88:f6:44:cd:1e:45:10:08:92:a1:8a:c7:71:7d:55:37:
         03:62:3e:b6:5a:d2:be:76:09:82:d9:4c:de:29:9e:be:82:d6:
         5e:b6:59:bf:d2:ac:a6:5b:7b:02:dc:df:3f:f5:60:35:f4:2b:
         5a:45:6f:17:51:e1:fb:ce:0a:2a:89:f1:9d:65:2b:b0:f4:ff:
         32:a1:17:63:8d:9f:94:56:42:75:8c:57:ae:28:b5:6e:be:d3:
         ab:ce:99:38:26:c5:0e:95:5f:35:ab:ff:65:e8:45:af:81:63:
         38:b3:8f:58:a2:ad:fb:b5:6b:6f:80:02:b1:7a:5a:08:f7:26:
         af:b6:3a:72:0d:f4:c4:ee:73:8d:e4:eb:a6:73:9d:5e:b4:09:
         ca:30:f4:2f:e8:6a:b6:95:b2:38:94:36:d7:bf:c4:a8:91:77:
         ba:fd:24:3e:48:dd:10:aa:29:c6:5a:32:ff:c6:10:43:ca:ef:
         bf:e6:11:9f:ab:e1:6a:2c:05:d1:ff:e8:f8:ab:48:89:dd:67:
         25:96:38:ba:1a:34:be:ac:9d:e9:df:a4:02:1f:d4:d5:2c:0f:
         57:0b:b9:59:41:f6:8c:fe:18:1d:15:88:00:44:f3:eb:e7:77:
         8e:f6:9b:f2:63:02:a1:c1:6d:c6:51:3e:51:2c:60:63:02:2e:
         de:ed:7a:80
-----BEGIN CERTIFICATE-----
MIIEIjCCAwqgAwIBAgIEEAAA5TANBgkqhkiG9w0BAQsFADBEMQswCQYDVQQGEwJE
RTEPMA0GA1UECAwGSGVzc2VuMRQwEgYDVQQKDAtwcml2YWN5aWRlYTEOMAwGA1UE
AwwFQ0EwMDEwHhcNMTkwMjA4MjE0MTMxWhcNMjAwMjA4MjE0MTMxWjBQMQ8wDQYD
VQQLDAZyZWFsbTExEjAQBgNVBAMMCWNvcm5lbGl1czEpMCcGCSqGSIb3DQEJARYa
dXNlckBsb2NhbGhvc3QubG9jYWxkb21haW4wggEiMA0GCSqGSIb3DQEBAQUAA4IB
DwAwggEKAoIBAQC+SgR+W/KiP1mf9erPokhV2bNGqs8sBJBo4NYUDUStJgB3drWH
ivgYDCi4MpDav83FFR8E9+DIduW0Ry1l03uEgONsilnvhTrtDbFer4JtexhWG4sH
0neEGJXehAxOy+W0ZLOPiJQrDxZOM1P7pW1nA04ALNZwxJMIqyW2x6zCViPzcvld
6/HaZ/Y0VOLKIWfcR7rkAAEJTXhkwX0CFUxs9HFmZvqfP9NDN+Wr+SPFcaZvO2T1
9fFXhWcXPSKZc6W361duvSFEkYE5WbRt+t1YTU1/stN8mALRbzqrxXO0JXuIFupJ
pQnxqWxc8dev9nRlXJwiadoMMughgrgp5ER7AgMBAAGjggEOMIIBCjALBgNVHQ8E
BAMCBaAwCQYDVR0TBAIwADARBglghkgBhvhCAQEEBAMCBkAwMwYJYIZIAYb4QgEN
BCYWJE9wZW5TU0wgR2VuZXJhdGVkIFNlcnZlciBDZXJ0aWZpY2F0ZTAdBgNVHQ4E
FgQUcl/vV59fSoV3eJ+qX2TKT81U2OEwdAYDVR0jBG0wa4AU9KfAzJFGr2TzkfIn
+Miyb4qHMnOhSKRGMEQxCzAJBgNVBAYTAkRFMQ8wDQYDVQQIDAZIZXNzZW4xFDAS
BgNVBAoMC3ByaXZhY3lpZGVhMQ4wDAYDVQQDDAVDQTAwMYIJAPvI66yDzRIHMBMG
A1UdJQQMMAoGCCsGAQUFBwMBMA0GCSqGSIb3DQEBCwUAA4IBAQCaV4j2RM0eRRAI
kqGKx3F9VTcDYj62WtK+dgmC2UzeKZ6+gtZetlm/0qymW3sC3N8/9WA19CtaRW8X
UeH7zgoqifGdZSuw9P8yoRdjjZ+UVkJ1jFeuKLVuvtOrzpk4JsUOlV81q/9l6EWv
gWM4s49Yoq37tWtvgAKxeloI9yavtjpyDfTE7nON5Oumc51etAnKMPQv6Gq2lbI4
lDbXv8SokXe6/SQ+SN0QqinGWjL/xhBDyu+/5hGfq+FqLAXR/+j4q0iJ3Wcllji6
GjS+rJ3p36QCH9TVLA9XC7lZQfaM/hgdFYgARPPr53eO9pvyYwKhwW3GUT5RLGBj
Ai7e7XqA
-----END CERTIFICATE-----
