Certificate:
    Data:
        Version: 3 (0x2)
        Serial Number: 268435680 (0x100000e0)
    Signature Algorithm: sha256WithRSAEncryption
        Issuer: C=DE, ST=Hessen, O=privacyidea, CN=CA001
        Validity
            Not Before: Feb  8 21:37:40 2019 GMT
            Not After : Feb  8 21:37:40 2020 GMT
        Subject: C=DE, ST=Hessen, O=privacyidea, CN=requester.localdomain
        Subject Public Key Info:
            Public Key Algorithm: rsaEncryption
                Public-Key: (2048 bit)
                Modulus:
                    00:cd:be:14:4f:fa:ce:01:3f:42:22:1b:1d:9c:af:
                    dd:92:d2:7f:db:6c:b7:3e:39:43:43:6b:13:03:f1:
                    05:f4:07:74:bc:76:69:28:0b:af:19:8e:d7:fc:e3:
                    cd:c6:58:f2:ca:7f:08:6d:53:fc:07:02:44:24:c6:
                    b4:34:4c:8c:04:fe:33:0e:40:e2:20:ba:02:73:5a:
                    f7:f5:4f:63:6e:cc:c6:b6:df:54:1d:37:39:7d:51:
                    36:26:5f:bd:dc:3f:a8:8b:6b:a2:ae:b6:9d:d6:21:
                    e7:df:41:b8:7a:28:2a:68:48:ca:a8:2d:ed:e1:e9:
                    46:5e:5a:72:6d:b4:84:38:87:91:fd:94:11:0b:28:
                    84:c6:c2:2f:2a:fb:01:f9:36:7a:09:75:d1:33:88:
                    3c:73:41:5b:c8:bf:94:89:70:a1:f0:c0:b9:2e:50:
                    53:1e:b1:17:64:69:f4:2d:81:e0:a9:0d:0e:32:e9:
                    ba:55:8a:85:f1:1b:6f:49:79:b4:7f:88:c3:0d:3e:
                    54:88:9b:3d:1f:38:8c:04:f3:ee:6a:63:2b:f5:c6:
                    db:b4:83:aa:c4:78:41:3a:7d:4b:e1:c8:3e:71:ca:
                    1b:61:59:ea:c6:c4:ca:32:5e:c9:e9:bf:12:29:e6:
                    c6:c3:63:fe:a0:55:da:7a:f1:60:98:4d:26:ed:fa:
                    70:2d
                Exponent: 65537 (0x10001)
        X509v3 extensions:
            X509v3 Key Usage: 
                Digital Signature, Key Encipherment
            X509v3 Basic Constraints: 
                CA:FALSE
            Netscape Cert Type: 
                SSL Server
            Netscape Comment: 
                OpenSSL Generated Server Certificate
            X509v3 Subject Key Identifier: 
                53:3F:ED:5D:09:07:B3:65:7B:AB:45:C9:24:5B:09:77:80:0A:96:ED
            X509v3 Authority Key Identifier: 
                keyid:F4:A7:C0:CC:91:46:AF:64:F3:91:F2:27:F8:C8:B2:6F:8A:87:32:73
                DirName:/C=DE/ST=Hessen/O=privacyidea/CN=CA001
                serial:FB:C8:EB:AC:83:CD:12:07

            X509v3 Extended Key Usage: 
                TLS Web Server Authentication
    Signature Algorithm: sha256WithRSAEncryption
         57:22:e6:60:de:74:87:8a:5d:31:49:60:df:3b:6d:0c:5e:5c:
         bf:06:44:dd:8f:d6:a8:8e:1a:5c:34:48:80:09:99:76:98:2f:
         68:fc:b8:e3:98:70:8e:12:fc:00:21:e7:86:f8:1d:62:9e:1c:
         7c:a9:59:22:26:d8:3d:fc:c6:18:1c:70:9a:92:4f:0b:7d:b6:
         40:4d:45:34:1f:96:af:42:1d:22:c3:26:0a:48:f0:59:fb:7e:
         54:a4:6f:a4:2d:51:b5:1c:48:ad:02:34:d8:73:9c:a1:44:ec:
         00:7b:1f:61:02:7c:62:d7:06:a6:fb:fc:c3:8b:03:ff:fb:65:
         ee:cf:4a:b8:8c:81:b2:9f:73:2a:6d:2c:24:a4:60:a7:c7:70:
         06:88:48:f0:67:f8:fa:69:30:be:d0:bd:4b:ea:35:1b:f6:00:
         e5:61:6f:36:51:18:f8:2f:fe:7e:b7:f6:e8:79:36:33:e3:fb:
         8e:b8:1d:19:8c:13:a3:c3:bf:6d:7e:0c:a7:43:f9:6c:65:dc:
         10:bb:93:f1:6b:10:c1:af:1b:f8:74:76:06:f3:57:f0:3d:44:
         ec:cf:7b:d6:f1:ba:1a:b6:d1:b4:6c:35:16:77:d4:51:e3:0f:
         3a:89:4e:cf:29:29:df:34:41:c1:4f:13:4b:61:93:db:8e:05:
         b8:95:33:a9
-----BEGIN CERTIFICATE-----
MIIEJjCCAw6gAwIBAgIEEAAA4DANBgkqhkiG9w0BAQsFADBEMQswCQYDVQQGEwJE
RTEPMA0GA1UECAwGSGVzc2VuMRQwEgYDVQQKDAtwcml2YWN5aWRlYTEOMAwGA1UE
AwwFQ0EwMDEwHhcNMTkwMjA4MjEzNzQwWhcNMjAwMjA4MjEzNzQwWjBUMQswCQYD
VQQGEwJERTEPMA0GA1UECAwGSGVzc2VuMRQwEgYDVQQKDAtwcml2YWN5aWRlYTEe
MBwGA1UEAwwVcmVxdWVzdGVyLmxvY2FsZG9tYWluMIIBIjANBgkqhkiG9w0BAQEF
AAOCAQ8AMIIBCgKCAQEAzb4UT/rOAT9CIhsdnK/dktJ/22y3PjlDQ2sTA/EF9Ad0
vHZpKAuvGY7X/OPNxljyyn8IbVP8BwJEJMa0NEyMBP4zDkDiILoCc1r39U9jbszG
tt9UHTc5fVE2Jl+93D+oi2uirrad1iHn30G4eigqaEjKqC3t4elGXlpybbSEOIeR
/ZQRCyiExsIvKvsB+TZ6CXXRM4g8c0FbyL+UiXCh8MC5LlBTHrEXZGn0LYHgqQ0O
Mum6VYqF8RtvSXm0f4jDDT5UiJs9HziMBPPuamMr9cbbtIOqxHhBOn1L4cg+ccob
YVnqxsTKMl7J6b8SKebGw2P+oFXaevFgmE0m7fpwLQIDAQABo4IBDjCCAQowCwYD
VR0PBAQDAgWgMAkGA1UdEwQCMAAwEQYJYIZIAYb4QgEBBAQDAgZAMDMGCWCGSAGG
+EIBDQQmFiRPcGVuU1NMIEdlbmVyYXRlZCBTZXJ2ZXIgQ2VydGlmaWNhdGUwHQYD
VR0OBBYEFFM/7V0JB7Nle6tFySRbCXeACpbtMHQGA1UdIwRtMGuAFPSnwMyRRq9k
85HyJ/jIsm+KhzJzoUikRjBEMQswCQYDVQQGEwJERTEPMA0GA1UECAwGSGVzc2Vu
MRQwEgYDVQQKDAtwcml2YWN5aWRlYTEOMAwGA1UEAwwFQ0EwMDGCCQD7yOusg80S
BzATBgNVHSUEDDAKBggrBgEFBQcDATANBgkqhkiG9w0BAQsFAAOCAQEAVyLmYN50
h4pdMUlg3zttDF5cvwZE3Y/WqI4aXDRIgAmZdpgvaPy445hwjhL8ACHnhvgdYp4c
fKlZIibYPfzGGBxwmpJPC322QE1FNB+Wr0IdIsMmCkjwWft+VKRvpC1RtRxIrQI0
2HOcoUTsAHsfYQJ8YtcGpvv8w4sD//tl7s9KuIyBsp9zKm0sJKRgp8dwBohI8Gf4
+mkwvtC9S+o1G/YA5WFvNlEY+C/+frf26Hk2M+P7jrgdGYwTo8O/bX4Mp0P5bGXc
ELuT8WsQwa8b+HR2BvNX8D1E7M971vG6GrbRtGw1FnfUUeMPOolOzykp3zRBwU8T
S2GT244FuJUzqQ==
-----END CERTIFICATE-----
