Certificate:
    Data:
        Version: 3 (0x2)
        Serial Number: 268435664 (0x100000d0)
    Signature Algorithm: sha256WithRSAEncryption
        Issuer: C=DE, ST=Hessen, O=privacyidea, CN=CA001
        Validity
            Not Before: Mar  1 15:16:27 2019 GMT
            Not After : Feb 29 15:16:27 2020 GMT
        Subject: C=DE, ST=Hessen, O=privacyidea, CN=requester.localdomain
        Subject Public Key Info:
            Public Key Algorithm: rsaEncryption
                Public-Key: (2048 bit)
                Modulus:
                    00:cd:be:14:4f:fa:ce:01:3f:42:22:1b:1d:9c:af:
                    dd:92:d2:7f:db:6c:b7:3e:39:43:43:6b:13:03:f1:
                    05:f4:07:74:bc:76:69:28:0b:af:19:8e:d7:fc:e3:
                    cd:c6:58:f2:ca:7f:08:6d:53:fc:07:02:44:24:c6:
                    b4:34:4c:8c:04:fe:33:0e:40:e2:20:ba:02:73:5a:
                    f7:f5:4f:63:6e:cc:c6:b6:df:54:1d:37:39:7d:51:
                    36:26:5f:bd:dc:3f:a8:8b:6b:a2:ae:b6:9d:d6:21:
                    e7:df:41:b8:7a:28:2a:68:48:ca:a8:2d:ed:e1:e9:
                    46:5e:5a:72:6d:b4:84:38:87:91:fd:94:11:0b:28:
                    84:c6:c2:2f:2a:fb:01:f9:36:7a:09:75:d1:33:88:
                    3c:73:41:5b:c8:bf:94:89:70:a1:f0:c0:b9:2e:50:
                    53:1e:b1:17:64:69:f4:2d:81:e0:a9:0d:0e:32:e9:
                    ba:55:8a:85:f1:1b:6f:49:79:b4:7f:88:c3:0d:3e:
                    54:88:9b:3d:1f:38:8c:04:f3:ee:6a:63:2b:f5:c6:
                    db:b4:83:aa:c4:78:41:3a:7d:4b:e1:c8:3e:71:ca:
                    1b:61:59:ea:c6:c4:ca:32:5e:c9:e9:bf:12:29:e6:
                    c6:c3:63:fe:a0:55:da:7a:f1:60:98:4d:26:ed:fa:
                    70:2d
                Exponent: 65537 (0x10001)
        X509v3 extensions:
            X509v3 Key Usage: 
                Digital Signature, Key Encipherment
            X509v3 Basic Constraints: 
                CA:FALSE
            Netscape Cert Type: 
                SSL Server
            Netscape Comment: 
                OpenSSL Generated Server Certificate
            X509v3 Subject Key Identifier: 
                53:3F:ED:5D:09:07:B3:65:7B:AB:45:C9:24:5B:09:77:80:0A:96:ED
            X509v3 Authority Key Identifier: 
                keyid:F4:A7:C0:CC:91:46:AF:64:F3:91:F2:27:F8:C8:B2:6F:8A:87:32:73
                DirName:/C=DE/ST=Hessen/O=privacyidea/CN=CA001
                serial:FB:C8:EB:AC:83:CD:12:07

            X509v3 Extended Key Usage: 
                TLS Web Server Authentication
    Signature Algorithm: sha256WithRSAEncryption
         b9:47:01:e6:a7:c1:ed:9c:40:60:51:f7:4a:e3:46:e7:85:00:
         9b:b3:8d:f4:6a:6e:33:57:99:63:e1:e5:25:67:85:f8:8b:ef:
         fa:fe:49:93:3a:04:c8:27:c7:a4:58:97:85:d6:92:bd:a7:10:
         aa:52:be:57:6c:84:0c:82:c8:e6:50:fe:b0:3b:03:b4:96:16:
         d3:cc:ba:ce:51:d7:da:2b:56:2c:e1:12:5d:7c:7b:52:ad:32:
         18:e5:37:db:6a:91:dd:bd:2e:47:b3:f5:04:e7:c6:bd:cf:ab:
         ec:6e:10:92:2a:ca:2e:8c:6f:bd:69:37:ce:7a:bb:18:d6:8f:
         85:dc:57:67:a0:93:cc:a4:21:53:23:88:1e:a4:f1:42:d1:52:
         71:21:a5:c8:b2:0e:85:10:dc:61:20:73:a1:e6:a6:b3:44:83:
         5b:d6:0c:e0:2a:7e:ce:5c:e9:69:f2:43:a2:39:78:3c:0c:14:
         23:07:40:d0:08:dc:a2:16:e5:c8:f8:73:58:cf:43:ba:9e:eb:
         8c:8e:92:b2:51:72:2b:62:9f:8f:4d:e8:ed:a8:9f:cf:b6:67:
         c1:2a:33:b9:10:89:af:2b:bd:b5:a5:0c:b5:6e:37:4f:05:9a:
         01:58:ec:38:5b:eb:22:40:94:59:5c:bd:60:d9:3f:28:b5:1d:
         59:8c:8e:34
-----BEGIN CERTIFICATE-----
MIIEJjCCAw6gAwIBAgIEEAAA0DANBgkqhkiG9w0BAQsFADBEMQswCQYDVQQGEwJE
RTEPMA0GA1UECAwGSGVzc2VuMRQwEgYDVQQKDAtwcml2YWN5aWRlYTEOMAwGA1UE
AwwFQ0EwMDEwHhcNMTkwMzAxMTUxNjI3WhcNMjAwMjI5MTUxNjI3WjBUMQswCQYD
VQQGEwJERTEPMA0GA1UECAwGSGVzc2VuMRQwEgYDVQQKDAtwcml2YWN5aWRlYTEe
MBwGA1UEAwwVcmVxdWVzdGVyLmxvY2FsZG9tYWluMIIBIjANBgkqhkiG9w0BAQEF
AAOCAQ8AMIIBCgKCAQEAzb4UT/rOAT9CIhsdnK/dktJ/22y3PjlDQ2sTA/EF9Ad0
vHZpKAuvGY7X/OPNxljyyn8IbVP8BwJEJMa0NEyMBP4zDkDiILoCc1r39U9jbszG
tt9UHTc5fVE2Jl+93D+oi2uirrad1iHn30G4eigqaEjKqC3t4elGXlpybbSEOIeR
/ZQRCyiExsIvKvsB+TZ6CXXRM4g8c0FbyL+UiXCh8MC5LlBTHrEXZGn0LYHgqQ0O
Mum6VYqF8RtvSXm0f4jDDT5UiJs9HziMBPPuamMr9cbbtIOqxHhBOn1L4cg+ccob
YVnqxsTKMl7J6b8SKebGw2P+oFXaevFgmE0m7fpwLQIDAQABo4IBDjCCAQowCwYD
VR0PBAQDAgWgMAkGA1UdEwQCMAAwEQYJYIZIAYb4QgEBBAQDAgZAMDMGCWCGSAGG
+EIBDQQmFiRPcGVuU1NMIEdlbmVyYXRlZCBTZXJ2ZXIgQ2VydGlmaWNhdGUwHQYD
VR0OBBYEFFM/7V0JB7Nle6tFySRbCXeACpbtMHQGA1UdIwRtMGuAFPSnwMyRRq9k
85HyJ/jIsm+KhzJzoUikRjBEMQswCQYDVQQGEwJERTEPMA0GA1UECAwGSGVzc2Vu
MRQwEgYDVQQKDAtwcml2YWN5aWRlYTEOMAwGA1UEAwwFQ0EwMDGCCQD7yOusg80S
BzATBgNVHSUEDDAKBggrBgEFBQcDATANBgkqhkiG9w0BAQsFAAOCAQEAuUcB5qfB
7ZxAYFH3SuNG54UAm7ON9GpuM1eZY+HlJWeF+Ivv+v5JkzoEyCfHpFiXhdaSvacQ
qlK+V2yEDILI5lD+sDsDtJYW08y6zlHX2itWLOESXXx7Uq0yGOU322qR3b0uR7P1
BOfGvc+r7G4QkirKLoxvvWk3znq7GNaPhdxXZ6CTzKQhUyOIHqTxQtFScSGlyLIO
hRDcYSBzoeams0SDW9YM4Cp+zlzpafJDojl4PAwUIwdA0AjcohblyPhzWM9Dup7r
jI6SslFyK2Kfj03o7aifz7ZnwSozuRCJryu9taUMtW43TwWaAVjsOFvrIkCUWVy9
YNk/KLUdWYyONA==
-----END CERTIFICATE-----
