Certificate:
    Data:
        Version: 3 (0x2)
        Serial Number: 268435674 (0x100000da)
    Signature Algorithm: sha256WithRSAEncryption
        Issuer: C=DE, ST=Hessen, O=privacyidea, CN=CA001
        Validity
            Not Before: Feb  8 21:16:59 2019 GMT
            Not After : Feb  8 21:16:59 2020 GMT
        Subject: CN=Steve Test/emailAddress=steve@openssl.org
        Subject Public Key Info:
            Public Key Algorithm: rsaEncryption
                Public-Key: (2048 bit)
                Modulus:
                    00:d2:81:89:20:51:48:0f:73:f4:11:32:24:d5:1f:
                    1c:fd:5c:f5:b6:e6:c5:f0:52:81:dc:d2:af:66:4a:
                    7c:93:31:61:5c:af:d1:6d:06:70:03:60:7c:72:0c:
                    88:dd:49:cd:9e:02:6c:d2:5a:d7:53:0f:f3:da:be:
                    69:64:b5:0f:0c:00:e3:b3:50:47:a3:b3:9b:ba:13:
                    50:d6:58:5a:4b:ab:39:e0:11:ca:0a:27:67:03:78:
                    22:66:6d:92:1e:1b:5c:49:ae:e6:6b:d1:8e:3b:9d:
                    06:d3:c6:ac:4d:53:43:10:ab:e8:96:c1:87:82:97:
                    99:8f:20:d3:99:12:37:31:84:e1:8a:ff:29:03:5f:
                    22:90:3e:7f:9b:e0:20:c1:ad:dc:ae:4c:39:1a:31:
                    96:17:02:8c:b2:d9:b4:0d:20:12:9b:7d:86:54:fd:
                    33:fd:c1:2a:62:46:f8:60:96:cf:6e:01:6f:22:df:
                    13:47:e7:97:ec:05:72:23:a3:62:f8:fa:ef:ac:9c:
                    72:f0:37:cb:2f:37:cf:90:a8:27:51:86:c6:d7:78:
                    08:8f:7e:25:a2:15:70:a2:fb:1c:b6:15:5e:a0:97:
                    8b:81:4c:09:28:8a:27:3b:94:bc:71:db:5b:71:37:
                    9a:2b:16:e0:6f:b5:c9:f5:4b:4f:20:ba:65:cf:af:
                    ad:ad
                Exponent: 65537 (0x10001)
        X509v3 extensions:
            X509v3 Key Usage: 
                Digital Signature, Key Encipherment
            X509v3 Basic Constraints: 
                CA:FALSE
            Netscape Cert Type: 
                SSL Server
            Netscape Comment: 
                OpenSSL Generated Server Certificate
            X509v3 Subject Key Identifier: 
                E5:25:6D:3E:AF:0D:DD:3F:4C:F2:45:19:39:D5:14:DB:7E:9C:C0:AD
            X509v3 Authority Key Identifier: 
                keyid:F4:A7:C0:CC:91:46:AF:64:F3:91:F2:27:F8:C8:B2:6F:8A:87:32:73
                DirName:/C=DE/ST=Hessen/O=privacyidea/CN=CA001
                serial:FB:C8:EB:AC:83:CD:12:07

            X509v3 Extended Key Usage: 
                TLS Web Server Authentication
    Signature Algorithm: sha256WithRSAEncryption
         af:3f:60:09:b8:f7:98:4a:b6:66:ac:b4:23:1e:60:5b:e1:82:
         6e:9e:b2:f8:d1:ab:db:2f:4b:24:11:6d:ea:f5:3e:59:eb:9a:
         bf:d4:27:b0:98:c3:dd:6b:ce:f1:0b:d3:6b:e9:f2:db:b9:bc:
         85:a3:30:0f:2a:14:04:ca:17:a8:8b:45:43:23:7a:7b:d2:e5:
         c5:0e:6b:a5:25:46:90:ce:74:59:bd:6a:14:1f:1c:15:4c:9f:
         ad:9f:fd:1a:09:ac:b9:3a:52:f5:ce:4d:0c:13:1e:46:45:c0:
         d9:9e:65:27:09:53:7e:1c:28:de:3c:72:0f:05:0f:f5:5d:69:
         8c:71:43:94:2e:d6:a8:c8:40:f2:c8:b9:5f:7c:f8:9c:8c:e7:
         11:c9:c1:b1:b6:7b:21:20:a5:ef:5e:f4:86:3a:70:7f:f2:bf:
         23:33:d0:e7:44:dd:75:a6:3f:3a:01:15:9d:50:93:42:36:57:
         4a:01:9f:1a:d2:31:c1:a9:79:7c:13:38:7f:92:bd:52:b1:80:
         0b:48:45:ef:51:15:e7:6c:2c:2f:90:a1:3c:8c:d0:0a:b9:a3:
         cc:08:91:48:d6:ee:d6:ec:47:d0:36:e7:ac:4a:25:55:30:ce:
         66:96:19:01:d0:cc:f1:b3:a7:5d:18:c6:80:ee:76:17:15:d0:
         0e:b6:a3:43
-----BEGIN CERTIFICATE-----
MIIECTCCAvGgAwIBAgIEEAAA2jANBgkqhkiG9w0BAQsFADBEMQswCQYDVQQGEwJE
RTEPMA0GA1UECAwGSGVzc2VuMRQwEgYDVQQKDAtwcml2YWN5aWRlYTEOMAwGA1UE
AwwFQ0EwMDEwHhcNMTkwMjA4MjExNjU5WhcNMjAwMjA4MjExNjU5WjA3MRMwEQYD
VQQDDApTdGV2ZSBUZXN0MSAwHgYJKoZIhvcNAQkBFhFzdGV2ZUBvcGVuc3NsLm9y
ZzCCASIwDQYJKoZIhvcNAQEBBQADggEPADCCAQoCggEBANKBiSBRSA9z9BEyJNUf
HP1c9bbmxfBSgdzSr2ZKfJMxYVyv0W0GcANgfHIMiN1JzZ4CbNJa11MP89q+aWS1
DwwA47NQR6Ozm7oTUNZYWkurOeARygonZwN4ImZtkh4bXEmu5mvRjjudBtPGrE1T
QxCr6JbBh4KXmY8g05kSNzGE4Yr/KQNfIpA+f5vgIMGt3K5MORoxlhcCjLLZtA0g
Ept9hlT9M/3BKmJG+GCWz24BbyLfE0fnl+wFciOjYvj676yccvA3yy83z5CoJ1GG
xtd4CI9+JaIVcKL7HLYVXqCXi4FMCSiKJzuUvHHbW3E3misW4G+1yfVLTyC6Zc+v
ra0CAwEAAaOCAQ4wggEKMAsGA1UdDwQEAwIFoDAJBgNVHRMEAjAAMBEGCWCGSAGG
+EIBAQQEAwIGQDAzBglghkgBhvhCAQ0EJhYkT3BlblNTTCBHZW5lcmF0ZWQgU2Vy
dmVyIENlcnRpZmljYXRlMB0GA1UdDgQWBBTlJW0+rw3dP0zyRRk51RTbfpzArTB0
BgNVHSMEbTBrgBT0p8DMkUavZPOR8if4yLJviocyc6FIpEYwRDELMAkGA1UEBhMC
REUxDzANBgNVBAgMBkhlc3NlbjEUMBIGA1UECgwLcHJpdmFjeWlkZWExDjAMBgNV
BAMMBUNBMDAxggkA+8jrrIPNEgcwEwYDVR0lBAwwCgYIKwYBBQUHAwEwDQYJKoZI
hvcNAQELBQADggEBAK8/YAm495hKtmastCMeYFvhgm6esvjRq9svSyQRber1Plnr
mr/UJ7CYw91rzvEL02vp8tu5vIWjMA8qFATKF6iLRUMjenvS5cUOa6UlRpDOdFm9
ahQfHBVMn62f/RoJrLk6UvXOTQwTHkZFwNmeZScJU34cKN48cg8FD/VdaYxxQ5Qu
1qjIQPLIuV98+JyM5xHJwbG2eyEgpe9e9IY6cH/yvyMz0OdE3XWmPzoBFZ1Qk0I2
V0oBnxrSMcGpeXwTOH+SvVKxgAtIRe9RFedsLC+QoTyM0Aq5o8wIkUjW7tbsR9A2
56xKJVUwzmaWGQHQzPGzp10YxoDudhcV0A62o0M=
-----END CERTIFICATE-----
