Certificate:
    Data:
        Version: 3 (0x2)
        Serial Number: 268435683 (0x100000e3)
    Signature Algorithm: sha256WithRSAEncryption
        Issuer: C=DE, ST=Hessen, O=privacyidea, CN=CA001
        Validity
            Not Before: Feb  8 21:37:41 2019 GMT
            Not After : Feb 27 21:37:41 2021 GMT
        Subject: CN=Steve Test/emailAddress=steve@openssl.org
        Subject Public Key Info:
            Public Key Algorithm: rsaEncryption
                Public-Key: (2048 bit)
                Modulus:
                    00:d2:81:89:20:51:48:0f:73:f4:11:32:24:d5:1f:
                    1c:fd:5c:f5:b6:e6:c5:f0:52:81:dc:d2:af:66:4a:
                    7c:93:31:61:5c:af:d1:6d:06:70:03:60:7c:72:0c:
                    88:dd:49:cd:9e:02:6c:d2:5a:d7:53:0f:f3:da:be:
                    69:64:b5:0f:0c:00:e3:b3:50:47:a3:b3:9b:ba:13:
                    50:d6:58:5a:4b:ab:39:e0:11:ca:0a:27:67:03:78:
                    22:66:6d:92:1e:1b:5c:49:ae:e6:6b:d1:8e:3b:9d:
                    06:d3:c6:ac:4d:53:43:10:ab:e8:96:c1:87:82:97:
                    99:8f:20:d3:99:12:37:31:84:e1:8a:ff:29:03:5f:
                    22:90:3e:7f:9b:e0:20:c1:ad:dc:ae:4c:39:1a:31:
                    96:17:02:8c:b2:d9:b4:0d:20:12:9b:7d:86:54:fd:
                    33:fd:c1:2a:62:46:f8:60:96:cf:6e:01:6f:22:df:
                    13:47:e7:97:ec:05:72:23:a3:62:f8:fa:ef:ac:9c:
                    72:f0:37:cb:2f:37:cf:90:a8:27:51:86:c6:d7:78:
                    08:8f:7e:25:a2:15:70:a2:fb:1c:b6:15:5e:a0:97:
                    8b:81:4c:09:28:8a:27:3b:94:bc:71:db:5b:71:37:
                    9a:2b:16:e0:6f:b5:c9:f5:4b:4f:20:ba:65:cf:af:
                    ad:ad
                Exponent: 65537 (0x10001)
        X509v3 extensions:
            X509v3 Key Usage: 
                Digital Signature, Key Encipherment
            X509v3 Basic Constraints: 
                CA:FALSE
            Netscape Cert Type: 
                SSL Server
            Netscape Comment: 
                OpenSSL Generated Server Certificate
            X509v3 Subject Key Identifier: 
                E5:25:6D:3E:AF:0D:DD:3F:4C:F2:45:19:39:D5:14:DB:7E:9C:C0:AD
            X509v3 Authority Key Identifier: 
                keyid:F4:A7:C0:CC:91:46:AF:64:F3:91:F2:27:F8:C8:B2:6F:8A:87:32:73
                DirName:/C=DE/ST=Hessen/O=privacyidea/CN=CA001
                serial:FB:C8:EB:AC:83:CD:12:07

            X509v3 Extended Key Usage: 
                TLS Web Server Authentication
    Signature Algorithm: sha256WithRSAEncryption
         1c:0f:b2:dd:51:1d:1b:b1:b9:36:4f:b1:25:a1:98:fe:97:6a:
         47:88:68:e5:12:59:ad:7b:ba:f1:3e:c9:c0:c3:8e:14:4b:a5:
         9e:d4:ed:ba:1f:c8:2f:1e:58:31:60:26:c5:d7:63:ec:10:b7:
         48:1f:0a:fd:7e:ac:dd:e0:bb:60:06:f4:e2:0e:d6:f2:92:de:
         4c:f1:6d:7b:a2:ac:42:8d:2e:aa:f0:5d:7e:45:4c:78:76:a0:
         9b:de:5b:7d:92:85:17:f7:ae:2e:f8:cc:d5:aa:ed:35:93:57:
         4c:4a:6e:4a:f6:7a:03:b8:ad:3b:76:5f:58:f8:7c:9b:4d:b4:
         00:16:3a:0a:5e:c0:b0:50:2e:31:7a:1e:f9:d7:f9:b4:e3:d3:
         67:24:57:f7:66:13:a6:9d:25:03:6b:07:3a:0b:1f:9e:9d:2d:
         5b:e5:e3:b2:d7:d1:ea:57:75:85:57:ae:f4:d4:18:65:95:34:
         2a:d4:c0:cc:77:6e:ae:c8:1d:50:9c:39:46:26:e4:f9:72:70:
         9a:17:83:3f:4d:23:f6:79:8a:51:16:e3:65:f0:bb:38:45:7e:
         d2:d0:d7:ae:9f:11:4f:b2:42:01:af:b5:cb:7b:3e:a7:6e:09:
         8d:e0:5b:3a:3b:57:c0:ab:a7:b7:cb:3f:99:68:ec:75:44:23:
         fe:a4:b2:97
-----BEGIN CERTIFICATE-----
MIIECTCCAvGgAwIBAgIEEAAA4zANBgkqhkiG9w0BAQsFADBEMQswCQYDVQQGEwJE
RTEPMA0GA1UECAwGSGVzc2VuMRQwEgYDVQQKDAtwcml2YWN5aWRlYTEOMAwGA1UE
AwwFQ0EwMDEwHhcNMTkwMjA4MjEzNzQxWhcNMjEwMjI3MjEzNzQxWjA3MRMwEQYD
VQQDDApTdGV2ZSBUZXN0MSAwHgYJKoZIhvcNAQkBFhFzdGV2ZUBvcGVuc3NsLm9y
ZzCCASIwDQYJKoZIhvcNAQEBBQADggEPADCCAQoCggEBANKBiSBRSA9z9BEyJNUf
HP1c9bbmxfBSgdzSr2ZKfJMxYVyv0W0GcANgfHIMiN1JzZ4CbNJa11MP89q+aWS1
DwwA47NQR6Ozm7oTUNZYWkurOeARygonZwN4ImZtkh4bXEmu5mvRjjudBtPGrE1T
QxCr6JbBh4KXmY8g05kSNzGE4Yr/KQNfIpA+f5vgIMGt3K5MORoxlhcCjLLZtA0g
Ept9hlT9M/3BKmJG+GCWz24BbyLfE0fnl+wFciOjYvj676yccvA3yy83z5CoJ1GG
xtd4CI9+JaIVcKL7HLYVXqCXi4FMCSiKJzuUvHHbW3E3misW4G+1yfVLTyC6Zc+v
ra0CAwEAAaOCAQ4wggEKMAsGA1UdDwQEAwIFoDAJBgNVHRMEAjAAMBEGCWCGSAGG
+EIBAQQEAwIGQDAzBglghkgBhvhCAQ0EJhYkT3BlblNTTCBHZW5lcmF0ZWQgU2Vy
dmVyIENlcnRpZmljYXRlMB0GA1UdDgQWBBTlJW0+rw3dP0zyRRk51RTbfpzArTB0
BgNVHSMEbTBrgBT0p8DMkUavZPOR8if4yLJviocyc6FIpEYwRDELMAkGA1UEBhMC
REUxDzANBgNVBAgMBkhlc3NlbjEUMBIGA1UECgwLcHJpdmFjeWlkZWExDjAMBgNV
BAMMBUNBMDAxggkA+8jrrIPNEgcwEwYDVR0lBAwwCgYIKwYBBQUHAwEwDQYJKoZI
hvcNAQELBQADggEBABwPst1RHRuxuTZPsSWhmP6XakeIaOUSWa17uvE+ycDDjhRL
pZ7U7bofyC8eWDFgJsXXY+wQt0gfCv1+rN3gu2AG9OIO1vKS3kzxbXuirEKNLqrw
XX5FTHh2oJveW32ShRf3ri74zNWq7TWTV0xKbkr2egO4rTt2X1j4fJtNtAAWOgpe
wLBQLjF6HvnX+bTj02ckV/dmE6adJQNrBzoLH56dLVvl47LX0epXdYVXrvTUGGWV
NCrUwMx3bq7IHVCcOUYm5PlycJoXgz9NI/Z5ilEW42XwuzhFftLQ166fEU+yQgGv
tct7PqduCY3gWzo7V8Crp7fLP5lo7HVEI/6kspc=
-----END CERTIFICATE-----
