Certificate:
    Data:
        Version: 3 (0x2)
        Serial Number: 268435670 (0x100000d6)
    Signature Algorithm: sha256WithRSAEncryption
        Issuer: C=DE, ST=Hessen, O=privacyidea, CN=CA001
        Validity
            Not Before: Mar  1 15:22:09 2019 GMT
            Not After : Feb 29 15:22:09 2020 GMT
        Subject: OU=realm1, CN=cornelius/emailAddress=user@localhost.localdomain
        Subject Public Key Info:
            Public Key Algorithm: rsaEncryption
                Public-Key: (2048 bit)
                Modulus:
                    00:cc:c3:c1:a7:83:b2:be:54:34:e9:37:0f:ee:df:
                    01:7f:f8:ae:12:49:13:61:d0:27:30:c6:d7:e4:4d:
                    76:80:24:07:77:71:7c:6a:f1:b9:7a:54:ee:36:08:
                    45:be:d7:a8:2e:ce:83:9b:7a:72:e3:5e:09:1c:01:
                    ad:f1:7c:0a:d7:1d:20:4d:df:9e:8a:86:ff:51:9e:
                    60:3d:2d:7b:45:97:3d:0d:b8:1a:1f:49:00:06:5a:
                    5b:81:2f:7d:ba:2a:75:a7:96:4f:e3:84:32:60:23:
                    24:13:b1:07:4a:28:f2:d3:0f:b9:f4:ef:06:98:e7:
                    48:61:7e:d1:75:7f:c6:08:17:a6:3a:93:a0:8c:09:
                    a6:5f:90:63:0b:be:81:f3:ab:70:e4:90:b9:b2:2b:
                    d1:b9:25:02:0b:01:62:66:3f:6f:cd:4f:00:c7:26:
                    ad:4e:95:54:73:52:12:e7:a6:33:77:14:9b:b5:3f:
                    97:15:d5:b1:a1:3d:d0:63:0a:0b:44:ec:06:8a:d5:
                    92:ec:6c:b4:56:57:2a:c0:1d:0e:88:31:50:83:36:
                    c1:23:9c:ab:da:b6:a3:66:41:7f:a8:ba:94:ac:fa:
                    8a:0b:fa:35:dc:57:eb:8c:a2:2f:4c:7c:92:f1:bf:
                    5b:87:68:20:b0:ba:b2:05:2b:d1:1c:85:a9:e6:16:
                    86:ad
                Exponent: 65537 (0x10001)
        X509v3 extensions:
            X509v3 Key Usage: 
                Digital Signature, Key Encipherment
            X509v3 Basic Constraints: 
                CA:FALSE
            Netscape Cert Type: 
                SSL Server
            Netscape Comment: 
                OpenSSL Generated Server Certificate
            X509v3 Subject Key Identifier: 
                3D:87:DB:95:9F:0B:25:6A:97:7E:7E:3C:70:27:34:F7:F0:C6:DC:15
            X509v3 Authority Key Identifier: 
                keyid:F4:A7:C0:CC:91:46:AF:64:F3:91:F2:27:F8:C8:B2:6F:8A:87:32:73
                DirName:/C=DE/ST=Hessen/O=privacyidea/CN=CA001
                serial:FB:C8:EB:AC:83:CD:12:07

            X509v3 Extended Key Usage: 
                TLS Web Server Authentication
    Signature Algorithm: sha256WithRSAEncryption
         45:71:0e:66:bf:b6:57:5b:5e:89:71:4a:df:02:f8:00:68:4b:
         8e:77:ea:3c:6a:ee:b8:df:5f:f0:98:7d:a5:fd:48:c6:f5:66:
         d4:cc:31:18:b4:3a:20:b1:cd:f1:d0:ce:62:31:c2:ec:8b:4e:
         73:bf:63:83:66:4e:16:cd:b4:cf:b0:cf:84:de:dc:b0:68:c7:
         4c:d5:96:44:de:c6:2f:42:d3:c1:7b:1e:f5:4b:aa:0a:26:39:
         62:d7:50:98:ac:96:ed:ea:6a:02:b9:79:85:f3:dc:5b:1f:62:
         fc:8f:2a:11:b3:ed:25:7e:5d:6d:92:f1:26:e5:ab:ef:6c:4e:
         4e:38:99:d3:78:f2:f7:d3:12:6d:b0:31:53:8d:78:93:32:4d:
         03:f5:e5:00:eb:ad:74:1c:ca:73:14:f7:e6:38:81:ba:ef:ce:
         6e:07:31:e5:67:a1:52:2b:f2:03:87:46:58:d2:4e:15:6a:c4:
         f5:20:03:c9:28:20:59:87:2c:15:46:b2:e5:ac:f2:c0:28:bd:
         ea:29:7e:58:89:06:e9:83:dc:ff:c5:9a:61:53:b4:b4:d0:5d:
         8d:f3:a4:cd:34:5b:09:8a:4f:93:14:4d:4f:8b:59:02:38:c2:
         19:be:95:30:ef:08:3b:8c:df:fe:aa:fc:52:d6:22:4f:99:b0:
         58:71:e6:bc
-----BEGIN CERTIFICATE-----
MIIEIjCCAwqgAwIBAgIEEAAA1jANBgkqhkiG9w0BAQsFADBEMQswCQYDVQQGEwJE
RTEPMA0GA1UECAwGSGVzc2VuMRQwEgYDVQQKDAtwcml2YWN5aWRlYTEOMAwGA1UE
AwwFQ0EwMDEwHhcNMTkwMzAxMTUyMjA5WhcNMjAwMjI5MTUyMjA5WjBQMQ8wDQYD
VQQLDAZyZWFsbTExEjAQBgNVBAMMCWNvcm5lbGl1czEpMCcGCSqGSIb3DQEJARYa
dXNlckBsb2NhbGhvc3QubG9jYWxkb21haW4wggEiMA0GCSqGSIb3DQEBAQUAA4IB
DwAwggEKAoIBAQDMw8Gng7K+VDTpNw/u3wF/+K4SSRNh0CcwxtfkTXaAJAd3cXxq
8bl6VO42CEW+16guzoObenLjXgkcAa3xfArXHSBN356Khv9RnmA9LXtFlz0NuBof
SQAGWluBL326KnWnlk/jhDJgIyQTsQdKKPLTD7n07waY50hhftF1f8YIF6Y6k6CM
CaZfkGMLvoHzq3DkkLmyK9G5JQILAWJmP2/NTwDHJq1OlVRzUhLnpjN3FJu1P5cV
1bGhPdBjCgtE7AaK1ZLsbLRWVyrAHQ6IMVCDNsEjnKvatqNmQX+oupSs+ooL+jXc
V+uMoi9MfJLxv1uHaCCwurIFK9EchanmFoatAgMBAAGjggEOMIIBCjALBgNVHQ8E
BAMCBaAwCQYDVR0TBAIwADARBglghkgBhvhCAQEEBAMCBkAwMwYJYIZIAYb4QgEN
BCYWJE9wZW5TU0wgR2VuZXJhdGVkIFNlcnZlciBDZXJ0aWZpY2F0ZTAdBgNVHQ4E
FgQUPYfblZ8LJWqXfn48cCc09/DG3BUwdAYDVR0jBG0wa4AU9KfAzJFGr2TzkfIn
+Miyb4qHMnOhSKRGMEQxCzAJBgNVBAYTAkRFMQ8wDQYDVQQIDAZIZXNzZW4xFDAS
BgNVBAoMC3ByaXZhY3lpZGVhMQ4wDAYDVQQDDAVDQTAwMYIJAPvI66yDzRIHMBMG
A1UdJQQMMAoGCCsGAQUFBwMBMA0GCSqGSIb3DQEBCwUAA4IBAQBFcQ5mv7ZXW16J
cUrfAvgAaEuOd+o8au6431/wmH2l/UjG9WbUzDEYtDogsc3x0M5iMcLsi05zv2OD
Zk4WzbTPsM+E3tywaMdM1ZZE3sYvQtPBex71S6oKJjli11CYrJbt6moCuXmF89xb
H2L8jyoRs+0lfl1tkvEm5avvbE5OOJnTePL30xJtsDFTjXiTMk0D9eUA6610HMpz
FPfmOIG6785uBzHlZ6FSK/IDh0ZY0k4VasT1IAPJKCBZhywVRrLlrPLAKL3qKX5Y
iQbpg9z/xZphU7S00F2N86TNNFsJik+TFE1Pi1kCOMIZvpUw7wg7jN/+qvxS1iJP
mbBYcea8
-----END CERTIFICATE-----
