Certificate:
    Data:
        Version: 3 (0x2)
        Serial Number: 268435666 (0x100000d2)
    Signature Algorithm: sha256WithRSAEncryption
        Issuer: C=DE, ST=Hessen, O=privacyidea, CN=CA001
        Validity
            Not Before: Mar  1 15:18:38 2019 GMT
            Not After : Feb 29 15:18:38 2020 GMT
        Subject: C=DE, ST=Hessen, O=privacyidea, CN=usercert
        Subject Public Key Info:
            Public Key Algorithm: rsaEncryption
                Public-Key: (2048 bit)
                Modulus:
                    00:dc:2f:d1:5f:29:97:d4:7c:c3:53:c8:30:bd:4b:
                    67:70:2c:24:6b:b8:5e:eb:21:7a:48:12:56:7c:81:
                    5c:48:75:b6:68:eb:f6:f2:98:4e:50:51:d1:7f:6c:
                    73:f3:0a:a7:ae:be:48:5e:e5:d6:e1:d9:2a:7c:32:
                    6e:4e:fd:08:f6:5a:54:49:23:73:c3:b9:07:18:d1:
                    ef:b3:ac:f8:8a:dc:94:96:a4:90:3a:8e:74:df:e6:
                    0d:37:1b:bd:5b:b7:25:1a:56:39:da:6f:91:aa:5e:
                    1c:74:f3:f9:7c:14:01:83:12:65:76:c7:bb:fe:36:
                    5b:95:e9:72:65:83:ed:3e:98:30:71:fa:87:dd:a3:
                    36:5a:30:03:2e:26:e0:61:d1:bf:02:3f:b6:06:1f:
                    4a:89:28:1c:5c:a2:ff:4e:be:94:e6:8c:e0:da:82:
                    f1:9d:29:32:48:30:73:b4:04:f6:42:1e:be:f7:e2:
                    32:32:27:3c:9d:89:2f:70:3e:85:9a:6f:5c:c5:09:
                    c0:8c:32:2f:72:22:c9:d2:95:1f:b6:ac:72:60:72:
                    b7:82:4d:6b:ce:5b:e3:00:d0:d2:2f:58:c6:e0:10:
                    e5:51:ca:4d:3b:2e:e6:7e:ab:84:d6:56:f1:93:35:
                    a0:93:64:26:81:75:2f:91:b5:16:06:38:0b:db:cc:
                    2d:07
                Exponent: 65537 (0x10001)
        X509v3 extensions:
            X509v3 Key Usage: 
                Digital Signature, Key Encipherment
            X509v3 Basic Constraints: 
                CA:FALSE
            Netscape Cert Type: 
                SSL Server
            Netscape Comment: 
                OpenSSL Generated Server Certificate
            X509v3 Subject Key Identifier: 
                FC:14:D1:F0:4B:8D:00:90:F2:F5:B8:71:9E:4E:97:C3:92:54:AD:0B
            X509v3 Authority Key Identifier: 
                keyid:F4:A7:C0:CC:91:46:AF:64:F3:91:F2:27:F8:C8:B2:6F:8A:87:32:73
                DirName:/C=DE/ST=Hessen/O=privacyidea/CN=CA001
                serial:FB:C8:EB:AC:83:CD:12:07

            X509v3 Extended Key Usage: 
                TLS Web Server Authentication
    Signature Algorithm: sha256WithRSAEncryption
         0c:90:d2:51:5d:b0:c7:27:71:d0:fb:88:bb:bf:82:a9:47:ed:
         8c:7f:65:4c:b8:56:93:d5:05:90:c4:db:3a:48:09:9f:57:f5:
         79:43:db:1c:52:d5:a0:3d:f4:55:f3:ae:83:08:ca:ec:3a:31:
         2a:97:10:86:08:87:15:22:b0:0e:34:9a:52:f2:1a:f0:4f:ac:
         d2:bf:99:8e:7a:19:82:13:82:80:fc:45:f3:c3:2d:c5:f4:de:
         a6:4b:01:1c:49:74:6f:56:d3:95:41:79:d8:21:28:b6:f5:09:
         a0:61:11:28:e2:fb:59:40:4f:ff:5c:50:57:96:0d:35:d0:08:
         68:dc:bd:69:59:4c:78:c3:d5:8e:50:c2:aa:e8:21:65:e1:2c:
         c6:25:72:2a:b4:eb:3c:c1:a8:02:9e:8a:6a:04:69:9a:ae:30:
         0f:6c:f0:cc:79:83:b9:2b:93:86:7f:70:eb:c2:49:58:1a:5a:
         e8:95:db:89:70:41:95:3f:3b:74:67:43:ab:c3:1e:8e:d9:ba:
         57:e8:25:bb:1d:ef:c9:be:81:1f:62:ee:87:51:aa:57:6d:a0:
         b7:b0:c4:10:6a:19:c4:94:d6:0e:81:5c:cb:d5:49:37:15:cf:
         5e:f0:6f:db:37:68:d8:7b:80:2a:4f:52:80:46:f8:aa:d5:0d:
         6d:36:90:a4
-----BEGIN CERTIFICATE-----
MIIEGTCCAwGgAwIBAgIEEAAA0jANBgkqhkiG9w0BAQsFADBEMQswCQYDVQQGEwJE
RTEPMA0GA1UECAwGSGVzc2VuMRQwEgYDVQQKDAtwcml2YWN5aWRlYTEOMAwGA1UE
AwwFQ0EwMDEwHhcNMTkwMzAxMTUxODM4WhcNMjAwMjI5MTUxODM4WjBHMQswCQYD
VQQGEwJERTEPMA0GA1UECAwGSGVzc2VuMRQwEgYDVQQKDAtwcml2YWN5aWRlYTER
MA8GA1UEAwwIdXNlcmNlcnQwggEiMA0GCSqGSIb3DQEBAQUAA4IBDwAwggEKAoIB
AQDcL9FfKZfUfMNTyDC9S2dwLCRruF7rIXpIElZ8gVxIdbZo6/bymE5QUdF/bHPz
Cqeuvkhe5dbh2Sp8Mm5O/Qj2WlRJI3PDuQcY0e+zrPiK3JSWpJA6jnTf5g03G71b
tyUaVjnab5GqXhx08/l8FAGDEmV2x7v+NluV6XJlg+0+mDBx+ofdozZaMAMuJuBh
0b8CP7YGH0qJKBxcov9OvpTmjODagvGdKTJIMHO0BPZCHr734jIyJzydiS9wPoWa
b1zFCcCMMi9yIsnSlR+2rHJgcreCTWvOW+MA0NIvWMbgEOVRyk07LuZ+q4TWVvGT
NaCTZCaBdS+RtRYGOAvbzC0HAgMBAAGjggEOMIIBCjALBgNVHQ8EBAMCBaAwCQYD
VR0TBAIwADARBglghkgBhvhCAQEEBAMCBkAwMwYJYIZIAYb4QgENBCYWJE9wZW5T
U0wgR2VuZXJhdGVkIFNlcnZlciBDZXJ0aWZpY2F0ZTAdBgNVHQ4EFgQU/BTR8EuN
AJDy9bhxnk6Xw5JUrQswdAYDVR0jBG0wa4AU9KfAzJFGr2TzkfIn+Miyb4qHMnOh
SKRGMEQxCzAJBgNVBAYTAkRFMQ8wDQYDVQQIDAZIZXNzZW4xFDASBgNVBAoMC3By
aXZhY3lpZGVhMQ4wDAYDVQQDDAVDQTAwMYIJAPvI66yDzRIHMBMGA1UdJQQMMAoG
CCsGAQUFBwMBMA0GCSqGSIb3DQEBCwUAA4IBAQAMkNJRXbDHJ3HQ+4i7v4KpR+2M
f2VMuFaT1QWQxNs6SAmfV/V5Q9scUtWgPfRV866DCMrsOjEqlxCGCIcVIrAONJpS
8hrwT6zSv5mOehmCE4KA/EXzwy3F9N6mSwEcSXRvVtOVQXnYISi29QmgYREo4vtZ
QE//XFBXlg010Aho3L1pWUx4w9WOUMKq6CFl4SzGJXIqtOs8wagCnopqBGmarjAP
bPDMeYO5K5OGf3DrwklYGlrolduJcEGVPzt0Z0Orwx6O2bpX6CW7He/JvoEfYu6H
UapXbaC3sMQQahnElNYOgVzL1Uk3Fc9e8G/bN2jYe4AqT1KARviq1Q1tNpCk
-----END CERTIFICATE-----
