Certificate:
    Data:
        Version: 3 (0x2)
        Serial Number: 268435676 (0x100000dc)
    Signature Algorithm: sha256WithRSAEncryption
        Issuer: C=DE, ST=Hessen, O=privacyidea, CN=CA001
        Validity
            Not Before: Feb  8 21:23:30 2019 GMT
            Not After : Feb  8 21:23:30 2020 GMT
        Subject: C=DE, ST=Hessen, O=privacyidea, CN=requester.localdomain
        Subject Public Key Info:
            Public Key Algorithm: rsaEncryption
                Public-Key: (2048 bit)
                Modulus:
                    00:cd:be:14:4f:fa:ce:01:3f:42:22:1b:1d:9c:af:
                    dd:92:d2:7f:db:6c:b7:3e:39:43:43:6b:13:03:f1:
                    05:f4:07:74:bc:76:69:28:0b:af:19:8e:d7:fc:e3:
                    cd:c6:58:f2:ca:7f:08:6d:53:fc:07:02:44:24:c6:
                    b4:34:4c:8c:04:fe:33:0e:40:e2:20:ba:02:73:5a:
                    f7:f5:4f:63:6e:cc:c6:b6:df:54:1d:37:39:7d:51:
                    36:26:5f:bd:dc:3f:a8:8b:6b:a2:ae:b6:9d:d6:21:
                    e7:df:41:b8:7a:28:2a:68:48:ca:a8:2d:ed:e1:e9:
                    46:5e:5a:72:6d:b4:84:38:87:91:fd:94:11:0b:28:
                    84:c6:c2:2f:2a:fb:01:f9:36:7a:09:75:d1:33:88:
                    3c:73:41:5b:c8:bf:94:89:70:a1:f0:c0:b9:2e:50:
                    53:1e:b1:17:64:69:f4:2d:81:e0:a9:0d:0e:32:e9:
                    ba:55:8a:85:f1:1b:6f:49:79:b4:7f:88:c3:0d:3e:
                    54:88:9b:3d:1f:38:8c:04:f3:ee:6a:63:2b:f5:c6:
                    db:b4:83:aa:c4:78:41:3a:7d:4b:e1:c8:3e:71:ca:
                    1b:61:59:ea:c6:c4:ca:32:5e:c9:e9:bf:12:29:e6:
                    c6:c3:63:fe:a0:55:da:7a:f1:60:98:4d:26:ed:fa:
                    70:2d
                Exponent: 65537 (0x10001)
        X509v3 extensions:
            X509v3 Key Usage: 
                Digital Signature, Key Encipherment
            X509v3 Basic Constraints: 
                CA:FALSE
            Netscape Cert Type: 
                SSL Server
            Netscape Comment: 
                OpenSSL Generated Server Certificate
            X509v3 Subject Key Identifier: 
                53:3F:ED:5D:09:07:B3:65:7B:AB:45:C9:24:5B:09:77:80:0A:96:ED
            X509v3 Authority Key Identifier: 
                keyid:F4:A7:C0:CC:91:46:AF:64:F3:91:F2:27:F8:C8:B2:6F:8A:87:32:73
                DirName:/C=DE/ST=Hessen/O=privacyidea/CN=CA001
                serial:FB:C8:EB:AC:83:CD:12:07

            X509v3 Extended Key Usage: 
                TLS Web Server Authentication
    Signature Algorithm: sha256WithRSAEncryption
         48:f0:ad:f0:fe:82:d8:28:01:fe:ca:c6:f1:26:3e:bb:d7:11:
         42:21:ab:fe:09:99:31:6c:eb:b2:ae:dc:03:e4:76:01:be:be:
         cb:89:6a:08:48:2b:e9:fa:83:e7:4e:f5:fe:cf:0b:24:88:f2:
         6e:99:c3:34:d6:47:d0:14:f5:34:26:75:f3:8f:4b:b6:33:03:
         2c:cf:6a:52:63:c6:8f:c2:28:e8:e2:29:2f:3b:f5:62:c0:f5:
         30:61:8a:64:e5:c8:b5:e1:6a:f8:36:6a:df:06:fd:91:92:c8:
         93:5e:6b:7e:98:bb:8e:86:5a:80:5b:1c:81:3d:8c:d2:fb:41:
         3c:80:92:3f:1d:1c:84:ea:97:11:53:00:c9:c1:3f:9c:c9:79:
         12:78:bd:27:9b:03:d5:1c:42:71:96:68:a8:22:2e:1d:14:c8:
         5d:0d:74:4f:7f:66:85:c4:bf:e8:6a:46:40:ec:11:bd:40:06:
         f1:bc:f5:16:09:7d:93:29:4a:60:1e:e4:fa:ac:24:42:67:da:
         7c:de:2c:95:fc:7e:ac:e5:a3:7a:54:d4:82:7e:55:94:29:fb:
         76:5b:de:da:2a:1d:42:f1:f9:fe:9e:9a:b7:52:ec:b5:c6:92:
         ac:b0:5d:76:45:1a:74:17:cd:c5:86:fd:78:09:9a:02:a2:10:
         c8:bb:c3:f2
-----BEGIN CERTIFICATE-----
MIIEJjCCAw6gAwIBAgIEEAAA3DANBgkqhkiG9w0BAQsFADBEMQswCQYDVQQGEwJE
RTEPMA0GA1UECAwGSGVzc2VuMRQwEgYDVQQKDAtwcml2YWN5aWRlYTEOMAwGA1UE
AwwFQ0EwMDEwHhcNMTkwMjA4MjEyMzMwWhcNMjAwMjA4MjEyMzMwWjBUMQswCQYD
VQQGEwJERTEPMA0GA1UECAwGSGVzc2VuMRQwEgYDVQQKDAtwcml2YWN5aWRlYTEe
MBwGA1UEAwwVcmVxdWVzdGVyLmxvY2FsZG9tYWluMIIBIjANBgkqhkiG9w0BAQEF
AAOCAQ8AMIIBCgKCAQEAzb4UT/rOAT9CIhsdnK/dktJ/22y3PjlDQ2sTA/EF9Ad0
vHZpKAuvGY7X/OPNxljyyn8IbVP8BwJEJMa0NEyMBP4zDkDiILoCc1r39U9jbszG
tt9UHTc5fVE2Jl+93D+oi2uirrad1iHn30G4eigqaEjKqC3t4elGXlpybbSEOIeR
/ZQRCyiExsIvKvsB+TZ6CXXRM4g8c0FbyL+UiXCh8MC5LlBTHrEXZGn0LYHgqQ0O
Mum6VYqF8RtvSXm0f4jDDT5UiJs9HziMBPPuamMr9cbbtIOqxHhBOn1L4cg+ccob
YVnqxsTKMl7J6b8SKebGw2P+oFXaevFgmE0m7fpwLQIDAQABo4IBDjCCAQowCwYD
VR0PBAQDAgWgMAkGA1UdEwQCMAAwEQYJYIZIAYb4QgEBBAQDAgZAMDMGCWCGSAGG
+EIBDQQmFiRPcGVuU1NMIEdlbmVyYXRlZCBTZXJ2ZXIgQ2VydGlmaWNhdGUwHQYD
VR0OBBYEFFM/7V0JB7Nle6tFySRbCXeACpbtMHQGA1UdIwRtMGuAFPSnwMyRRq9k
85HyJ/jIsm+KhzJzoUikRjBEMQswCQYDVQQGEwJERTEPMA0GA1UECAwGSGVzc2Vu
MRQwEgYDVQQKDAtwcml2YWN5aWRlYTEOMAwGA1UEAwwFQ0EwMDGCCQD7yOusg80S
BzATBgNVHSUEDDAKBggrBgEFBQcDATANBgkqhkiG9w0BAQsFAAOCAQEASPCt8P6C
2CgB/srG8SY+u9cRQiGr/gmZMWzrsq7cA+R2Ab6+y4lqCEgr6fqD5071/s8LJIjy
bpnDNNZH0BT1NCZ1849LtjMDLM9qUmPGj8Io6OIpLzv1YsD1MGGKZOXIteFq+DZq
3wb9kZLIk15rfpi7joZagFscgT2M0vtBPICSPx0chOqXEVMAycE/nMl5Eni9J5sD
1RxCcZZoqCIuHRTIXQ10T39mhcS/6GpGQOwRvUAG8bz1Fgl9kylKYB7k+qwkQmfa
fN4slfx+rOWjelTUgn5VlCn7dlve2iodQvH5/p6at1LstcaSrLBddkUadBfNxYb9
eAmaAqIQyLvD8g==
-----END CERTIFICATE-----
