Certificate:
    Data:
        Version: 3 (0x2)
        Serial Number: 268435671 (0x100000d7)
    Signature Algorithm: sha256WithRSAEncryption
        Issuer: C=DE, ST=Hessen, O=privacyidea, CN=CA001
        Validity
            Not Before: Mar  1 15:29:44 2019 GMT
            Not After : Feb 29 15:29:44 2020 GMT
        Subject: CN=selfservice,CN=user,O=realm1/emailAddress=meine
        Subject Public Key Info:
            Public Key Algorithm: rsaEncryption
                Public-Key: (2048 bit)
                Modulus:
                    00:cf:3c:d4:33:0e:12:c4:e6:da:cd:b6:56:a1:1c:
                    26:bb:26:1c:8a:4a:73:a8:58:8a:b6:1e:b3:8b:99:
                    d2:1d:07:c2:92:89:79:c0:69:d8:c8:df:28:61:98:
                    1e:b3:fe:ae:2b:bd:78:a9:f7:6e:47:dc:a3:a0:16:
                    8c:85:02:c1:4e:92:fd:72:6e:f0:c8:03:29:9b:b8:
                    00:6e:c0:83:95:c8:34:20:36:9c:b3:e5:e4:e6:76:
                    73:a3:1a:ad:40:96:e0:53:54:00:ec:76:79:9a:c6:
                    0d:7e:b6:bd:29:ec:83:f3:cb:89:a4:cb:6c:00:ba:
                    0c:c5:78:0f:ff:69:b8:94:f4:04:70:43:3f:d8:9e:
                    d7:a7:fb:5d:ce:75:8e:da:e7:c4:07:b1:9d:de:6f:
                    88:4b:b6:4d:9a:cf:f9:bc:fa:9f:cd:32:6d:f6:3a:
                    0b:0d:23:42:78:ec:97:42:bf:0e:4d:60:56:e1:d3:
                    02:f2:19:cb:84:57:90:e5:70:a1:a2:83:35:86:e2:
                    da:86:9f:f9:8a:c4:79:b3:52:28:da:cb:bb:34:ca:
                    d3:da:91:4a:cf:8d:76:a2:b2:6b:9b:f9:96:fd:09:
                    2a:da:11:23:4d:f0:cb:d6:b2:b1:0e:12:6c:9a:19:
                    65:98:87:ca:e4:ee:24:ce:44:ac:90:8f:9d:1b:c5:
                    2a:9d
                Exponent: 65537 (0x10001)
        X509v3 extensions:
            X509v3 Key Usage: 
                Digital Signature, Key Encipherment
            X509v3 Basic Constraints: 
                CA:FALSE
            Netscape Cert Type: 
                SSL Server
            Netscape Comment: 
                OpenSSL Generated Server Certificate
            X509v3 Subject Key Identifier: 
                4D:07:90:AD:FF:1D:0D:E7:1A:DD:D6:2E:FA:BA:34:CB:AA:1F:24:C6
            X509v3 Authority Key Identifier: 
                keyid:F4:A7:C0:CC:91:46:AF:64:F3:91:F2:27:F8:C8:B2:6F:8A:87:32:73
                DirName:/C=DE/ST=Hessen/O=privacyidea/CN=CA001
                serial:FB:C8:EB:AC:83:CD:12:07

            X509v3 Extended Key Usage: 
                TLS Web Server Authentication
    Signature Algorithm: sha256WithRSAEncryption
         68:57:7a:00:47:f3:63:e7:61:c1:d6:05:3d:b5:87:58:d4:6d:
         3e:11:e6:4e:d6:e0:ff:b5:bc:79:2f:7c:93:32:5d:1e:8a:17:
         e9:d4:29:aa:de:ca:3a:5c:68:4c:51:ab:f9:6f:a3:4a:84:02:
         c7:d9:3e:5c:21:3c:8a:05:07:dc:ba:d0:30:e5:da:b7:d6:d7:
         d5:dd:19:d6:25:97:64:49:4d:5d:89:8d:2b:f5:5a:ba:36:f8:
         53:b6:ff:c6:f9:f0:f4:38:ab:79:db:b2:8e:1e:dc:28:54:ed:
         1d:5b:0e:16:fd:91:88:c8:52:be:43:06:93:e6:3e:ef:4c:f7:
         1c:b9:a3:00:37:09:7d:4f:d2:24:45:4c:d8:10:92:fd:5f:73:
         de:7a:84:1d:87:b2:37:ca:5a:a4:4c:58:bc:d5:4d:41:5b:50:
         f0:c1:3e:e0:26:df:99:0e:70:c6:c7:77:a7:f6:b1:1f:63:ef:
         bb:08:b0:af:2a:65:c2:dd:12:93:6b:5e:b5:e4:97:40:8c:a4:
         c8:88:35:b7:06:78:99:99:c4:fd:d2:6c:6f:f7:ad:24:eb:90:
         a2:0a:d2:49:80:77:95:7c:c2:3e:31:d0:79:da:8b:79:08:a5:
         13:9d:4d:a0:71:b7:79:02:17:4d:fb:37:b1:df:38:8a:95:e6:
         19:6a:2e:4e
-----BEGIN CERTIFICATE-----
MIIEDzCCAvegAwIBAgIEEAAA1zANBgkqhkiG9w0BAQsFADBEMQswCQYDVQQGEwJE
RTEPMA0GA1UECAwGSGVzc2VuMRQwEgYDVQQKDAtwcml2YWN5aWRlYTEOMAwGA1UE
AwwFQ0EwMDEwHhcNMTkwMzAxMTUyOTQ0WhcNMjAwMjI5MTUyOTQ0WjA9MSUwIwYD
VQQDDBxzZWxmc2VydmljZSxDTj11c2VyLE89cmVhbG0xMRQwEgYJKoZIhvcNAQkB
FgVtZWluZTCCASIwDQYJKoZIhvcNAQEBBQADggEPADCCAQoCggEBAM881DMOEsTm
2s22VqEcJrsmHIpKc6hYirYes4uZ0h0HwpKJecBp2MjfKGGYHrP+riu9eKn3bkfc
o6AWjIUCwU6S/XJu8MgDKZu4AG7Ag5XINCA2nLPl5OZ2c6MarUCW4FNUAOx2eZrG
DX62vSnsg/PLiaTLbAC6DMV4D/9puJT0BHBDP9ie16f7Xc51jtrnxAexnd5viEu2
TZrP+bz6n80ybfY6Cw0jQnjsl0K/Dk1gVuHTAvIZy4RXkOVwoaKDNYbi2oaf+YrE
ebNSKNrLuzTK09qRSs+NdqKya5v5lv0JKtoRI03wy9aysQ4SbJoZZZiHyuTuJM5E
rJCPnRvFKp0CAwEAAaOCAQ4wggEKMAsGA1UdDwQEAwIFoDAJBgNVHRMEAjAAMBEG
CWCGSAGG+EIBAQQEAwIGQDAzBglghkgBhvhCAQ0EJhYkT3BlblNTTCBHZW5lcmF0
ZWQgU2VydmVyIENlcnRpZmljYXRlMB0GA1UdDgQWBBRNB5Ct/x0N5xrd1i76ujTL
qh8kxjB0BgNVHSMEbTBrgBT0p8DMkUavZPOR8if4yLJviocyc6FIpEYwRDELMAkG
A1UEBhMCREUxDzANBgNVBAgMBkhlc3NlbjEUMBIGA1UECgwLcHJpdmFjeWlkZWEx
DjAMBgNVBAMMBUNBMDAxggkA+8jrrIPNEgcwEwYDVR0lBAwwCgYIKwYBBQUHAwEw
DQYJKoZIhvcNAQELBQADggEBAGhXegBH82PnYcHWBT21h1jUbT4R5k7W4P+1vHkv
fJMyXR6KF+nUKareyjpcaExRq/lvo0qEAsfZPlwhPIoFB9y60DDl2rfW19XdGdYl
l2RJTV2JjSv1Wro2+FO2/8b58PQ4q3nbso4e3ChU7R1bDhb9kYjIUr5DBpPmPu9M
9xy5owA3CX1P0iRFTNgQkv1fc956hB2HsjfKWqRMWLzVTUFbUPDBPuAm35kOcMbH
d6f2sR9j77sIsK8qZcLdEpNrXrXkl0CMpMiINbcGeJmZxP3SbG/3rSTrkKIK0kmA
d5V8wj4x0Hnai3kIpROdTaBxt3kCF037N7HfOIqV5hlqLk4=
-----END CERTIFICATE-----
