Certificate:
    Data:
        Version: 3 (0x2)
        Serial Number: 268435669 (0x100000d5)
    Signature Algorithm: sha256WithRSAEncryption
        Issuer: C=DE, ST=Hessen, O=privacyidea, CN=CA001
        Validity
            Not Before: Mar  1 15:22:09 2019 GMT
            Not After : Feb 29 15:22:09 2020 GMT
        Subject: C=DE, ST=Hessen, O=privacyidea, CN=requester.localdomain
        Subject Public Key Info:
            Public Key Algorithm: rsaEncryption
                Public-Key: (2048 bit)
                Modulus:
                    00:cd:be:14:4f:fa:ce:01:3f:42:22:1b:1d:9c:af:
                    dd:92:d2:7f:db:6c:b7:3e:39:43:43:6b:13:03:f1:
                    05:f4:07:74:bc:76:69:28:0b:af:19:8e:d7:fc:e3:
                    cd:c6:58:f2:ca:7f:08:6d:53:fc:07:02:44:24:c6:
                    b4:34:4c:8c:04:fe:33:0e:40:e2:20:ba:02:73:5a:
                    f7:f5:4f:63:6e:cc:c6:b6:df:54:1d:37:39:7d:51:
                    36:26:5f:bd:dc:3f:a8:8b:6b:a2:ae:b6:9d:d6:21:
                    e7:df:41:b8:7a:28:2a:68:48:ca:a8:2d:ed:e1:e9:
                    46:5e:5a:72:6d:b4:84:38:87:91:fd:94:11:0b:28:
                    84:c6:c2:2f:2a:fb:01:f9:36:7a:09:75:d1:33:88:
                    3c:73:41:5b:c8:bf:94:89:70:a1:f0:c0:b9:2e:50:
                    53:1e:b1:17:64:69:f4:2d:81:e0:a9:0d:0e:32:e9:
                    ba:55:8a:85:f1:1b:6f:49:79:b4:7f:88:c3:0d:3e:
                    54:88:9b:3d:1f:38:8c:04:f3:ee:6a:63:2b:f5:c6:
                    db:b4:83:aa:c4:78:41:3a:7d:4b:e1:c8:3e:71:ca:
                    1b:61:59:ea:c6:c4:ca:32:5e:c9:e9:bf:12:29:e6:
                    c6:c3:63:fe:a0:55:da:7a:f1:60:98:4d:26:ed:fa:
                    70:2d
                Exponent: 65537 (0x10001)
        X509v3 extensions:
            X509v3 Key Usage: 
                Digital Signature, Key Encipherment
            X509v3 Basic Constraints: 
                CA:FALSE
            Netscape Cert Type: 
                SSL Server
            Netscape Comment: 
                OpenSSL Generated Server Certificate
            X509v3 Subject Key Identifier: 
                53:3F:ED:5D:09:07:B3:65:7B:AB:45:C9:24:5B:09:77:80:0A:96:ED
            X509v3 Authority Key Identifier: 
                keyid:F4:A7:C0:CC:91:46:AF:64:F3:91:F2:27:F8:C8:B2:6F:8A:87:32:73
                DirName:/C=DE/ST=Hessen/O=privacyidea/CN=CA001
                serial:FB:C8:EB:AC:83:CD:12:07

            X509v3 Extended Key Usage: 
                TLS Web Server Authentication
    Signature Algorithm: sha256WithRSAEncryption
         24:fc:9c:7e:cf:fd:40:47:f9:01:bd:77:7f:52:25:d4:de:e0:
         d8:97:e2:0e:ca:e4:39:bc:26:f1:30:7a:92:b1:d6:9e:ce:a0:
         f4:3b:2a:23:52:24:24:36:59:bc:2d:89:2a:79:2e:30:b2:18:
         23:fa:14:97:1b:5d:9d:3d:ac:49:59:97:3c:c7:15:64:d1:c0:
         f4:c4:f4:e2:33:b0:10:28:07:fc:90:52:bf:bc:05:c7:d0:4c:
         be:6c:24:78:44:14:6c:4a:f2:54:51:fe:1f:82:68:6d:35:01:
         2f:f4:a8:b6:dd:f7:ce:c3:9c:7f:46:69:ac:48:c4:57:ff:92:
         c2:d6:3a:aa:ef:3c:d1:7c:ca:4e:3f:8f:23:9e:80:a1:00:2a:
         d2:dc:8f:32:56:84:f2:9f:b0:76:d3:03:0c:fa:50:ff:d4:e7:
         bf:db:c2:3b:75:0c:c6:f6:e5:61:87:56:f7:55:36:7d:a3:93:
         5c:8c:cf:e9:10:2c:ea:7c:d4:fb:4b:4a:fb:e6:2c:cd:af:77:
         9c:66:77:6b:b8:04:40:9f:d8:5c:e3:7f:f5:a2:64:2c:ff:37:
         03:00:9f:5e:af:cd:94:6c:73:93:b1:c9:cd:0a:1a:1d:2b:fa:
         17:98:9e:b9:97:5e:65:37:6e:a8:a7:4a:58:57:ed:a4:40:a0:
         0b:83:5a:3d
-----BEGIN CERTIFICATE-----
MIIEJjCCAw6gAwIBAgIEEAAA1TANBgkqhkiG9w0BAQsFADBEMQswCQYDVQQGEwJE
RTEPMA0GA1UECAwGSGVzc2VuMRQwEgYDVQQKDAtwcml2YWN5aWRlYTEOMAwGA1UE
AwwFQ0EwMDEwHhcNMTkwMzAxMTUyMjA5WhcNMjAwMjI5MTUyMjA5WjBUMQswCQYD
VQQGEwJERTEPMA0GA1UECAwGSGVzc2VuMRQwEgYDVQQKDAtwcml2YWN5aWRlYTEe
MBwGA1UEAwwVcmVxdWVzdGVyLmxvY2FsZG9tYWluMIIBIjANBgkqhkiG9w0BAQEF
AAOCAQ8AMIIBCgKCAQEAzb4UT/rOAT9CIhsdnK/dktJ/22y3PjlDQ2sTA/EF9Ad0
vHZpKAuvGY7X/OPNxljyyn8IbVP8BwJEJMa0NEyMBP4zDkDiILoCc1r39U9jbszG
tt9UHTc5fVE2Jl+93D+oi2uirrad1iHn30G4eigqaEjKqC3t4elGXlpybbSEOIeR
/ZQRCyiExsIvKvsB+TZ6CXXRM4g8c0FbyL+UiXCh8MC5LlBTHrEXZGn0LYHgqQ0O
Mum6VYqF8RtvSXm0f4jDDT5UiJs9HziMBPPuamMr9cbbtIOqxHhBOn1L4cg+ccob
YVnqxsTKMl7J6b8SKebGw2P+oFXaevFgmE0m7fpwLQIDAQABo4IBDjCCAQowCwYD
VR0PBAQDAgWgMAkGA1UdEwQCMAAwEQYJYIZIAYb4QgEBBAQDAgZAMDMGCWCGSAGG
+EIBDQQmFiRPcGVuU1NMIEdlbmVyYXRlZCBTZXJ2ZXIgQ2VydGlmaWNhdGUwHQYD
VR0OBBYEFFM/7V0JB7Nle6tFySRbCXeACpbtMHQGA1UdIwRtMGuAFPSnwMyRRq9k
85HyJ/jIsm+KhzJzoUikRjBEMQswCQYDVQQGEwJERTEPMA0GA1UECAwGSGVzc2Vu
MRQwEgYDVQQKDAtwcml2YWN5aWRlYTEOMAwGA1UEAwwFQ0EwMDGCCQD7yOusg80S
BzATBgNVHSUEDDAKBggrBgEFBQcDATANBgkqhkiG9w0BAQsFAAOCAQEAJPycfs/9
QEf5Ab13f1Il1N7g2JfiDsrkObwm8TB6krHWns6g9DsqI1IkJDZZvC2JKnkuMLIY
I/oUlxtdnT2sSVmXPMcVZNHA9MT04jOwECgH/JBSv7wFx9BMvmwkeEQUbEryVFH+
H4JobTUBL/Sott33zsOcf0ZprEjEV/+SwtY6qu880XzKTj+PI56AoQAq0tyPMlaE
8p+wdtMDDPpQ/9Tnv9vCO3UMxvblYYdW91U2faOTXIzP6RAs6nzU+0tK++Ysza93
nGZ3a7gEQJ/YXON/9aJkLP83AwCfXq/NlGxzk7HJzQoaHSv6F5ieuZdeZTduqKdK
WFftpECgC4NaPQ==
-----END CERTIFICATE-----
