Certificate:
    Data:
        Version: 3 (0x2)
        Serial Number: 268435667 (0x100000d3)
    Signature Algorithm: sha256WithRSAEncryption
        Issuer: C=DE, ST=Hessen, O=privacyidea, CN=CA001
        Validity
            Not Before: Mar  1 15:18:38 2019 GMT
            Not After : Feb 29 15:18:38 2020 GMT
        Subject: CN=Steve Test/emailAddress=steve@openssl.org
        Subject Public Key Info:
            Public Key Algorithm: rsaEncryption
                Public-Key: (2048 bit)
                Modulus:
                    00:d2:81:89:20:51:48:0f:73:f4:11:32:24:d5:1f:
                    1c:fd:5c:f5:b6:e6:c5:f0:52:81:dc:d2:af:66:4a:
                    7c:93:31:61:5c:af:d1:6d:06:70:03:60:7c:72:0c:
                    88:dd:49:cd:9e:02:6c:d2:5a:d7:53:0f:f3:da:be:
                    69:64:b5:0f:0c:00:e3:b3:50:47:a3:b3:9b:ba:13:
                    50:d6:58:5a:4b:ab:39:e0:11:ca:0a:27:67:03:78:
                    22:66:6d:92:1e:1b:5c:49:ae:e6:6b:d1:8e:3b:9d:
                    06:d3:c6:ac:4d:53:43:10:ab:e8:96:c1:87:82:97:
                    99:8f:20:d3:99:12:37:31:84:e1:8a:ff:29:03:5f:
                    22:90:3e:7f:9b:e0:20:c1:ad:dc:ae:4c:39:1a:31:
                    96:17:02:8c:b2:d9:b4:0d:20:12:9b:7d:86:54:fd:
                    33:fd:c1:2a:62:46:f8:60:96:cf:6e:01:6f:22:df:
                    13:47:e7:97:ec:05:72:23:a3:62:f8:fa:ef:ac:9c:
                    72:f0:37:cb:2f:37:cf:90:a8:27:51:86:c6:d7:78:
                    08:8f:7e:25:a2:15:70:a2:fb:1c:b6:15:5e:a0:97:
                    8b:81:4c:09:28:8a:27:3b:94:bc:71:db:5b:71:37:
                    9a:2b:16:e0:6f:b5:c9:f5:4b:4f:20:ba:65:cf:af:
                    ad:ad
                Exponent: 65537 (0x10001)
        X509v3 extensions:
            X509v3 Key Usage: 
                Digital Signature, Key Encipherment
            X509v3 Basic Constraints: 
                CA:FALSE
            Netscape Cert Type: 
                SSL Server
            Netscape Comment: 
                OpenSSL Generated Server Certificate
            X509v3 Subject Key Identifier: 
                E5:25:6D:3E:AF:0D:DD:3F:4C:F2:45:19:39:D5:14:DB:7E:9C:C0:AD
            X509v3 Authority Key Identifier: 
                keyid:F4:A7:C0:CC:91:46:AF:64:F3:91:F2:27:F8:C8:B2:6F:8A:87:32:73
                DirName:/C=DE/ST=Hessen/O=privacyidea/CN=CA001
                serial:FB:C8:EB:AC:83:CD:12:07

            X509v3 Extended Key Usage: 
                TLS Web Server Authentication
    Signature Algorithm: sha256WithRSAEncryption
         31:6a:c0:b8:57:a5:85:f5:85:4d:e0:dd:b9:4b:2a:6f:b0:83:
         9e:0b:c0:38:23:d8:85:b8:2b:ee:c8:98:67:ba:63:30:f3:1d:
         9f:93:fd:30:80:16:f5:af:f5:e3:76:18:02:2c:4a:1c:75:4c:
         cf:89:54:5b:51:6e:c1:ba:a1:13:43:03:df:a7:1e:51:b7:85:
         f0:fe:e9:af:a3:a2:92:0a:e1:87:2f:76:ea:33:67:d1:94:1c:
         33:51:cf:b8:1a:26:e4:46:7f:88:bf:f0:66:0b:ed:1b:85:f2:
         4e:c3:65:b7:d3:a3:a3:84:93:78:a1:91:86:3a:7b:d3:97:2a:
         83:64:e6:ce:8d:c3:44:0b:fc:84:fc:a1:a9:bf:75:07:dc:66:
         e5:c9:ee:09:1c:0b:0f:b2:a9:75:ed:a0:36:fd:b5:33:ac:23:
         a5:bf:80:47:77:a6:fd:e5:7b:e3:ea:cf:99:35:1e:7b:51:b3:
         a0:35:a6:85:41:be:a4:18:c8:11:83:94:cd:6c:55:41:6b:22:
         df:4b:fb:be:9d:83:23:67:24:2f:da:22:67:7c:e9:f0:cb:41:
         16:bf:1b:88:0c:22:58:3e:ef:09:17:81:34:bd:dc:ae:00:60:
         7c:7f:83:98:f2:49:e4:82:26:56:b1:02:10:b8:50:17:5e:95:
         af:b6:06:35
-----BEGIN CERTIFICATE-----
MIIECTCCAvGgAwIBAgIEEAAA0zANBgkqhkiG9w0BAQsFADBEMQswCQYDVQQGEwJE
RTEPMA0GA1UECAwGSGVzc2VuMRQwEgYDVQQKDAtwcml2YWN5aWRlYTEOMAwGA1UE
AwwFQ0EwMDEwHhcNMTkwMzAxMTUxODM4WhcNMjAwMjI5MTUxODM4WjA3MRMwEQYD
VQQDDApTdGV2ZSBUZXN0MSAwHgYJKoZIhvcNAQkBFhFzdGV2ZUBvcGVuc3NsLm9y
ZzCCASIwDQYJKoZIhvcNAQEBBQADggEPADCCAQoCggEBANKBiSBRSA9z9BEyJNUf
HP1c9bbmxfBSgdzSr2ZKfJMxYVyv0W0GcANgfHIMiN1JzZ4CbNJa11MP89q+aWS1
DwwA47NQR6Ozm7oTUNZYWkurOeARygonZwN4ImZtkh4bXEmu5mvRjjudBtPGrE1T
QxCr6JbBh4KXmY8g05kSNzGE4Yr/KQNfIpA+f5vgIMGt3K5MORoxlhcCjLLZtA0g
Ept9hlT9M/3BKmJG+GCWz24BbyLfE0fnl+wFciOjYvj676yccvA3yy83z5CoJ1GG
xtd4CI9+JaIVcKL7HLYVXqCXi4FMCSiKJzuUvHHbW3E3misW4G+1yfVLTyC6Zc+v
ra0CAwEAAaOCAQ4wggEKMAsGA1UdDwQEAwIFoDAJBgNVHRMEAjAAMBEGCWCGSAGG
+EIBAQQEAwIGQDAzBglghkgBhvhCAQ0EJhYkT3BlblNTTCBHZW5lcmF0ZWQgU2Vy
dmVyIENlcnRpZmljYXRlMB0GA1UdDgQWBBTlJW0+rw3dP0zyRRk51RTbfpzArTB0
BgNVHSMEbTBrgBT0p8DMkUavZPOR8if4yLJviocyc6FIpEYwRDELMAkGA1UEBhMC
REUxDzANBgNVBAgMBkhlc3NlbjEUMBIGA1UECgwLcHJpdmFjeWlkZWExDjAMBgNV
BAMMBUNBMDAxggkA+8jrrIPNEgcwEwYDVR0lBAwwCgYIKwYBBQUHAwEwDQYJKoZI
hvcNAQELBQADggEBADFqwLhXpYX1hU3g3blLKm+wg54LwDgj2IW4K+7ImGe6YzDz
HZ+T/TCAFvWv9eN2GAIsShx1TM+JVFtRbsG6oRNDA9+nHlG3hfD+6a+jopIK4Ycv
duozZ9GUHDNRz7gaJuRGf4i/8GYL7RuF8k7DZbfTo6OEk3ihkYY6e9OXKoNk5s6N
w0QL/IT8oam/dQfcZuXJ7gkcCw+yqXXtoDb9tTOsI6W/gEd3pv3le+Pqz5k1HntR
s6A1poVBvqQYyBGDlM1sVUFrIt9L+76dgyNnJC/aImd86fDLQRa/G4gMIlg+7wkX
gTS93K4AYHx/g5jySeSCJlaxAhC4UBdela+2BjU=
-----END CERTIFICATE-----
