Certificate:
    Data:
        Version: 3 (0x2)
        Serial Number: 268435684 (0x100000e4)
    Signature Algorithm: sha256WithRSAEncryption
        Issuer: C=DE, ST=Hessen, O=privacyidea, CN=CA001
        Validity
            Not Before: Feb  8 21:41:30 2019 GMT
            Not After : Feb  8 21:41:30 2020 GMT
        Subject: C=DE, ST=Hessen, O=privacyidea, CN=requester.localdomain
        Subject Public Key Info:
            Public Key Algorithm: rsaEncryption
                Public-Key: (2048 bit)
                Modulus:
                    00:cd:be:14:4f:fa:ce:01:3f:42:22:1b:1d:9c:af:
                    dd:92:d2:7f:db:6c:b7:3e:39:43:43:6b:13:03:f1:
                    05:f4:07:74:bc:76:69:28:0b:af:19:8e:d7:fc:e3:
                    cd:c6:58:f2:ca:7f:08:6d:53:fc:07:02:44:24:c6:
                    b4:34:4c:8c:04:fe:33:0e:40:e2:20:ba:02:73:5a:
                    f7:f5:4f:63:6e:cc:c6:b6:df:54:1d:37:39:7d:51:
                    36:26:5f:bd:dc:3f:a8:8b:6b:a2:ae:b6:9d:d6:21:
                    e7:df:41:b8:7a:28:2a:68:48:ca:a8:2d:ed:e1:e9:
                    46:5e:5a:72:6d:b4:84:38:87:91:fd:94:11:0b:28:
                    84:c6:c2:2f:2a:fb:01:f9:36:7a:09:75:d1:33:88:
                    3c:73:41:5b:c8:bf:94:89:70:a1:f0:c0:b9:2e:50:
                    53:1e:b1:17:64:69:f4:2d:81:e0:a9:0d:0e:32:e9:
                    ba:55:8a:85:f1:1b:6f:49:79:b4:7f:88:c3:0d:3e:
                    54:88:9b:3d:1f:38:8c:04:f3:ee:6a:63:2b:f5:c6:
                    db:b4:83:aa:c4:78:41:3a:7d:4b:e1:c8:3e:71:ca:
                    1b:61:59:ea:c6:c4:ca:32:5e:c9:e9:bf:12:29:e6:
                    c6:c3:63:fe:a0:55:da:7a:f1:60:98:4d:26:ed:fa:
                    70:2d
                Exponent: 65537 (0x10001)
        X509v3 extensions:
            X509v3 Key Usage: 
                Digital Signature, Key Encipherment
            X509v3 Basic Constraints: 
                CA:FALSE
            Netscape Cert Type: 
                SSL Server
            Netscape Comment: 
                OpenSSL Generated Server Certificate
            X509v3 Subject Key Identifier: 
                53:3F:ED:5D:09:07:B3:65:7B:AB:45:C9:24:5B:09:77:80:0A:96:ED
            X509v3 Authority Key Identifier: 
                keyid:F4:A7:C0:CC:91:46:AF:64:F3:91:F2:27:F8:C8:B2:6F:8A:87:32:73
                DirName:/C=DE/ST=Hessen/O=privacyidea/CN=CA001
                serial:FB:C8:EB:AC:83:CD:12:07

            X509v3 Extended Key Usage: 
                TLS Web Server Authentication
    Signature Algorithm: sha256WithRSAEncryption
         2f:0b:61:2d:3a:bc:c0:41:d9:f8:4a:12:04:f5:b3:58:a5:da:
         a6:27:0c:97:9e:65:46:d0:77:2c:fb:88:23:e2:05:1e:bb:b5:
         80:81:df:02:77:c8:ca:48:2f:b7:63:a0:7c:fb:43:60:4f:95:
         65:28:22:53:52:48:9d:97:b9:6a:4c:f1:0f:1e:ed:03:4c:d2:
         3a:c6:c5:3e:b2:95:00:c3:d3:0a:33:85:95:73:7d:58:01:c7:
         c9:9f:00:e9:22:a9:27:39:de:c9:b0:1c:95:21:05:70:86:0f:
         1d:6e:67:57:bd:19:25:9d:3e:f5:9b:a0:a6:e6:39:2f:f2:4f:
         4f:fd:83:bc:75:a8:13:68:61:50:aa:55:a6:6b:be:18:70:df:
         f9:b2:58:86:8b:b6:5c:47:a0:7f:0d:86:0c:16:be:ba:49:c8:
         1d:e9:16:af:f3:7a:ef:03:86:0a:28:1e:f5:d3:53:b6:83:fd:
         68:01:f8:06:6c:7a:1a:fd:58:52:05:44:7b:d8:38:5e:19:a5:
         4d:d0:b4:0e:25:d3:fd:de:35:4e:36:4b:1d:fb:b1:28:34:df:
         a2:a8:91:bd:ee:39:16:31:ed:19:69:15:6d:3f:d6:ad:1d:be:
         44:63:7c:fb:8a:bf:50:ed:b1:6a:b9:05:25:87:09:38:3f:c3:
         9e:55:95:90
-----BEGIN CERTIFICATE-----
MIIEJjCCAw6gAwIBAgIEEAAA5DANBgkqhkiG9w0BAQsFADBEMQswCQYDVQQGEwJE
RTEPMA0GA1UECAwGSGVzc2VuMRQwEgYDVQQKDAtwcml2YWN5aWRlYTEOMAwGA1UE
AwwFQ0EwMDEwHhcNMTkwMjA4MjE0MTMwWhcNMjAwMjA4MjE0MTMwWjBUMQswCQYD
VQQGEwJERTEPMA0GA1UECAwGSGVzc2VuMRQwEgYDVQQKDAtwcml2YWN5aWRlYTEe
MBwGA1UEAwwVcmVxdWVzdGVyLmxvY2FsZG9tYWluMIIBIjANBgkqhkiG9w0BAQEF
AAOCAQ8AMIIBCgKCAQEAzb4UT/rOAT9CIhsdnK/dktJ/22y3PjlDQ2sTA/EF9Ad0
vHZpKAuvGY7X/OPNxljyyn8IbVP8BwJEJMa0NEyMBP4zDkDiILoCc1r39U9jbszG
tt9UHTc5fVE2Jl+93D+oi2uirrad1iHn30G4eigqaEjKqC3t4elGXlpybbSEOIeR
/ZQRCyiExsIvKvsB+TZ6CXXRM4g8c0FbyL+UiXCh8MC5LlBTHrEXZGn0LYHgqQ0O
Mum6VYqF8RtvSXm0f4jDDT5UiJs9HziMBPPuamMr9cbbtIOqxHhBOn1L4cg+ccob
YVnqxsTKMl7J6b8SKebGw2P+oFXaevFgmE0m7fpwLQIDAQABo4IBDjCCAQowCwYD
VR0PBAQDAgWgMAkGA1UdEwQCMAAwEQYJYIZIAYb4QgEBBAQDAgZAMDMGCWCGSAGG
+EIBDQQmFiRPcGVuU1NMIEdlbmVyYXRlZCBTZXJ2ZXIgQ2VydGlmaWNhdGUwHQYD
VR0OBBYEFFM/7V0JB7Nle6tFySRbCXeACpbtMHQGA1UdIwRtMGuAFPSnwMyRRq9k
85HyJ/jIsm+KhzJzoUikRjBEMQswCQYDVQQGEwJERTEPMA0GA1UECAwGSGVzc2Vu
MRQwEgYDVQQKDAtwcml2YWN5aWRlYTEOMAwGA1UEAwwFQ0EwMDGCCQD7yOusg80S
BzATBgNVHSUEDDAKBggrBgEFBQcDATANBgkqhkiG9w0BAQsFAAOCAQEALwthLTq8
wEHZ+EoSBPWzWKXapicMl55lRtB3LPuII+IFHru1gIHfAnfIykgvt2OgfPtDYE+V
ZSgiU1JInZe5akzxDx7tA0zSOsbFPrKVAMPTCjOFlXN9WAHHyZ8A6SKpJzneybAc
lSEFcIYPHW5nV70ZJZ0+9ZugpuY5L/JPT/2DvHWoE2hhUKpVpmu+GHDf+bJYhou2
XEegfw2GDBa+uknIHekWr/N67wOGCige9dNTtoP9aAH4Bmx6Gv1YUgVEe9g4Xhml
TdC0DiXT/d41TjZLHfuxKDTfoqiRve45FjHtGWkVbT/WrR2+RGN8+4q/UO2xarkF
JYcJOD/DnlWVkA==
-----END CERTIFICATE-----
