Certificate:
    Data:
        Version: 3 (0x2)
        Serial Number: 268435673 (0x100000d9)
    Signature Algorithm: sha256WithRSAEncryption
        Issuer: C=DE, ST=Hessen, O=privacyidea, CN=CA001
        Validity
            Not Before: Feb  8 21:16:59 2019 GMT
            Not After : Feb  8 21:16:59 2020 GMT
        Subject: C=DE, ST=Hessen, O=privacyidea, CN=usercert
        Subject Public Key Info:
            Public Key Algorithm: rsaEncryption
                Public-Key: (2048 bit)
                Modulus:
                    00:dc:2f:d1:5f:29:97:d4:7c:c3:53:c8:30:bd:4b:
                    67:70:2c:24:6b:b8:5e:eb:21:7a:48:12:56:7c:81:
                    5c:48:75:b6:68:eb:f6:f2:98:4e:50:51:d1:7f:6c:
                    73:f3:0a:a7:ae:be:48:5e:e5:d6:e1:d9:2a:7c:32:
                    6e:4e:fd:08:f6:5a:54:49:23:73:c3:b9:07:18:d1:
                    ef:b3:ac:f8:8a:dc:94:96:a4:90:3a:8e:74:df:e6:
                    0d:37:1b:bd:5b:b7:25:1a:56:39:da:6f:91:aa:5e:
                    1c:74:f3:f9:7c:14:01:83:12:65:76:c7:bb:fe:36:
                    5b:95:e9:72:65:83:ed:3e:98:30:71:fa:87:dd:a3:
                    36:5a:30:03:2e:26:e0:61:d1:bf:02:3f:b6:06:1f:
                    4a:89:28:1c:5c:a2:ff:4e:be:94:e6:8c:e0:da:82:
                    f1:9d:29:32:48:30:73:b4:04:f6:42:1e:be:f7:e2:
                    32:32:27:3c:9d:89:2f:70:3e:85:9a:6f:5c:c5:09:
                    c0:8c:32:2f:72:22:c9:d2:95:1f:b6:ac:72:60:72:
                    b7:82:4d:6b:ce:5b:e3:00:d0:d2:2f:58:c6:e0:10:
                    e5:51:ca:4d:3b:2e:e6:7e:ab:84:d6:56:f1:93:35:
                    a0:93:64:26:81:75:2f:91:b5:16:06:38:0b:db:cc:
                    2d:07
                Exponent: 65537 (0x10001)
        X509v3 extensions:
            X509v3 Key Usage: 
                Digital Signature, Key Encipherment
            X509v3 Basic Constraints: 
                CA:FALSE
            Netscape Cert Type: 
                SSL Server
            Netscape Comment: 
                OpenSSL Generated Server Certificate
            X509v3 Subject Key Identifier: 
                FC:14:D1:F0:4B:8D:00:90:F2:F5:B8:71:9E:4E:97:C3:92:54:AD:0B
            X509v3 Authority Key Identifier: 
                keyid:F4:A7:C0:CC:91:46:AF:64:F3:91:F2:27:F8:C8:B2:6F:8A:87:32:73
                DirName:/C=DE/ST=Hessen/O=privacyidea/CN=CA001
                serial:FB:C8:EB:AC:83:CD:12:07

            X509v3 Extended Key Usage: 
                TLS Web Server Authentication
    Signature Algorithm: sha256WithRSAEncryption
         27:2d:4d:aa:8e:47:8e:a8:c3:9f:94:da:3f:b2:78:3d:78:ed:
         ff:df:a4:cf:fa:9f:36:b2:50:3b:a5:ec:99:df:3f:a6:b8:ea:
         7c:22:00:1d:94:7a:8a:40:61:71:fa:d0:ed:df:42:77:67:db:
         e3:27:25:14:1b:d0:c4:56:ca:fe:dd:d4:36:82:20:94:7e:54:
         09:8b:78:6f:99:de:02:68:b3:6a:73:eb:19:ae:9e:7b:22:82:
         3f:50:34:5c:c0:40:d4:1b:d6:d8:12:32:b4:a5:e2:14:70:8e:
         fc:2c:a8:ae:1c:64:82:8d:a0:90:f3:3b:b5:d4:f6:13:f3:3a:
         45:c0:f9:9d:71:dd:d6:37:c3:cd:b3:bb:6d:e8:a8:f8:9c:a5:
         9e:84:20:7a:46:6e:0e:80:66:9f:7e:dc:a6:92:66:f4:69:25:
         52:91:76:b3:fe:22:66:ac:bc:9a:a7:b9:a7:2a:35:70:0e:24:
         2d:2d:0e:a3:41:61:f3:7a:4e:76:58:0d:cf:c5:9c:f4:74:a1:
         9d:8d:a1:13:6f:e4:07:f2:7b:4f:d8:d8:65:e9:4b:4a:d2:9d:
         3c:bd:70:4b:aa:52:db:e0:07:62:b9:66:c0:63:d5:9a:10:d8:
         1d:9f:56:07:29:29:e7:36:2d:c4:60:5d:76:4c:2c:65:b4:41:
         71:b4:ab:96
-----BEGIN CERTIFICATE-----
MIIEGTCCAwGgAwIBAgIEEAAA2TANBgkqhkiG9w0BAQsFADBEMQswCQYDVQQGEwJE
RTEPMA0GA1UECAwGSGVzc2VuMRQwEgYDVQQKDAtwcml2YWN5aWRlYTEOMAwGA1UE
AwwFQ0EwMDEwHhcNMTkwMjA4MjExNjU5WhcNMjAwMjA4MjExNjU5WjBHMQswCQYD
VQQGEwJERTEPMA0GA1UECAwGSGVzc2VuMRQwEgYDVQQKDAtwcml2YWN5aWRlYTER
MA8GA1UEAwwIdXNlcmNlcnQwggEiMA0GCSqGSIb3DQEBAQUAA4IBDwAwggEKAoIB
AQDcL9FfKZfUfMNTyDC9S2dwLCRruF7rIXpIElZ8gVxIdbZo6/bymE5QUdF/bHPz
Cqeuvkhe5dbh2Sp8Mm5O/Qj2WlRJI3PDuQcY0e+zrPiK3JSWpJA6jnTf5g03G71b
tyUaVjnab5GqXhx08/l8FAGDEmV2x7v+NluV6XJlg+0+mDBx+ofdozZaMAMuJuBh
0b8CP7YGH0qJKBxcov9OvpTmjODagvGdKTJIMHO0BPZCHr734jIyJzydiS9wPoWa
b1zFCcCMMi9yIsnSlR+2rHJgcreCTWvOW+MA0NIvWMbgEOVRyk07LuZ+q4TWVvGT
NaCTZCaBdS+RtRYGOAvbzC0HAgMBAAGjggEOMIIBCjALBgNVHQ8EBAMCBaAwCQYD
VR0TBAIwADARBglghkgBhvhCAQEEBAMCBkAwMwYJYIZIAYb4QgENBCYWJE9wZW5T
U0wgR2VuZXJhdGVkIFNlcnZlciBDZXJ0aWZpY2F0ZTAdBgNVHQ4EFgQU/BTR8EuN
AJDy9bhxnk6Xw5JUrQswdAYDVR0jBG0wa4AU9KfAzJFGr2TzkfIn+Miyb4qHMnOh
SKRGMEQxCzAJBgNVBAYTAkRFMQ8wDQYDVQQIDAZIZXNzZW4xFDASBgNVBAoMC3By
aXZhY3lpZGVhMQ4wDAYDVQQDDAVDQTAwMYIJAPvI66yDzRIHMBMGA1UdJQQMMAoG
CCsGAQUFBwMBMA0GCSqGSIb3DQEBCwUAA4IBAQAnLU2qjkeOqMOflNo/sng9eO3/
36TP+p82slA7peyZ3z+muOp8IgAdlHqKQGFx+tDt30J3Z9vjJyUUG9DEVsr+3dQ2
giCUflQJi3hvmd4CaLNqc+sZrp57IoI/UDRcwEDUG9bYEjK0peIUcI78LKiuHGSC
jaCQ8zu11PYT8zpFwPmdcd3WN8PNs7tt6Kj4nKWehCB6Rm4OgGafftymkmb0aSVS
kXaz/iJmrLyap7mnKjVwDiQtLQ6jQWHzek52WA3PxZz0dKGdjaETb+QH8ntP2Nhl
6UtK0p08vXBLqlLb4AdiuWbAY9WaENgdn1YHKSnnNi3EYF12TCxltEFxtKuW
-----END CERTIFICATE-----
