Certificate:
    Data:
        Version: 3 (0x2)
        Serial Number: 268435689 (0x100000e9)
    Signature Algorithm: sha256WithRSAEncryption
        Issuer: C=DE, ST=Hessen, O=privacyidea, CN=CA001
        Validity
            Not Before: Feb  8 22:02:34 2019 GMT
            Not After : Feb  8 22:02:34 2020 GMT
        Subject: C=DE, ST=Hessen, O=privacyidea, CN=requester.localdomain
        Subject Public Key Info:
            Public Key Algorithm: rsaEncryption
                Public-Key: (2048 bit)
                Modulus:
                    00:cd:be:14:4f:fa:ce:01:3f:42:22:1b:1d:9c:af:
                    dd:92:d2:7f:db:6c:b7:3e:39:43:43:6b:13:03:f1:
                    05:f4:07:74:bc:76:69:28:0b:af:19:8e:d7:fc:e3:
                    cd:c6:58:f2:ca:7f:08:6d:53:fc:07:02:44:24:c6:
                    b4:34:4c:8c:04:fe:33:0e:40:e2:20:ba:02:73:5a:
                    f7:f5:4f:63:6e:cc:c6:b6:df:54:1d:37:39:7d:51:
                    36:26:5f:bd:dc:3f:a8:8b:6b:a2:ae:b6:9d:d6:21:
                    e7:df:41:b8:7a:28:2a:68:48:ca:a8:2d:ed:e1:e9:
                    46:5e:5a:72:6d:b4:84:38:87:91:fd:94:11:0b:28:
                    84:c6:c2:2f:2a:fb:01:f9:36:7a:09:75:d1:33:88:
                    3c:73:41:5b:c8:bf:94:89:70:a1:f0:c0:b9:2e:50:
                    53:1e:b1:17:64:69:f4:2d:81:e0:a9:0d:0e:32:e9:
                    ba:55:8a:85:f1:1b:6f:49:79:b4:7f:88:c3:0d:3e:
                    54:88:9b:3d:1f:38:8c:04:f3:ee:6a:63:2b:f5:c6:
                    db:b4:83:aa:c4:78:41:3a:7d:4b:e1:c8:3e:71:ca:
                    1b:61:59:ea:c6:c4:ca:32:5e:c9:e9:bf:12:29:e6:
                    c6:c3:63:fe:a0:55:da:7a:f1:60:98:4d:26:ed:fa:
                    70:2d
                Exponent: 65537 (0x10001)
        X509v3 extensions:
            X509v3 Key Usage: 
                Digital Signature, Key Encipherment
            X509v3 Basic Constraints: 
                CA:FALSE
            Netscape Cert Type: 
                SSL Server
            Netscape Comment: 
                OpenSSL Generated Server Certificate
            X509v3 Subject Key Identifier: 
                53:3F:ED:5D:09:07:B3:65:7B:AB:45:C9:24:5B:09:77:80:0A:96:ED
            X509v3 Authority Key Identifier: 
                keyid:F4:A7:C0:CC:91:46:AF:64:F3:91:F2:27:F8:C8:B2:6F:8A:87:32:73
                DirName:/C=DE/ST=Hessen/O=privacyidea/CN=CA001
                serial:FB:C8:EB:AC:83:CD:12:07

            X509v3 Extended Key Usage: 
                TLS Web Server Authentication
    Signature Algorithm: sha256WithRSAEncryption
         54:9c:09:4f:72:de:47:13:0f:4a:38:d0:af:40:b3:a3:22:65:
         f8:11:66:45:14:55:71:d9:1c:c3:93:5a:d5:58:ff:af:9d:9b:
         2b:03:95:aa:af:df:ab:71:72:76:c3:7e:56:0a:83:0d:e3:4c:
         d1:c0:2c:13:a4:91:7f:2e:07:28:09:7c:0b:c7:ea:f2:df:a4:
         20:74:ed:a1:c3:71:1f:de:e8:d4:03:0d:26:c8:6b:06:ae:4e:
         6a:9b:72:42:df:06:14:3b:9f:5d:05:c4:e6:66:d6:75:d7:1b:
         d1:57:72:bb:5e:1f:16:dd:17:ce:a3:c4:39:15:51:23:cb:44:
         d1:f1:18:21:5c:bf:6c:06:75:d5:ab:98:4d:8e:d5:74:12:09:
         32:e0:0e:4f:33:7d:b8:b5:98:0e:05:4e:b6:88:12:e1:49:3b:
         e2:e4:60:56:c3:e2:79:09:60:31:26:ef:b2:1a:bb:f1:5f:8c:
         f1:ef:9b:55:b2:41:df:6d:fe:29:cf:ec:2d:2c:21:1c:81:d4:
         a4:a8:4e:a5:75:1d:52:29:4c:2d:63:59:d0:82:cf:ce:1d:61:
         05:e5:ab:a2:0e:7e:88:b4:ad:31:6e:91:b7:d1:88:27:e5:0a:
         ae:79:0b:0f:c3:7c:1a:85:33:86:7c:1c:99:88:ba:d2:e1:72:
         0f:63:b4:fe
-----BEGIN CERTIFICATE-----
MIIEJjCCAw6gAwIBAgIEEAAA6TANBgkqhkiG9w0BAQsFADBEMQswCQYDVQQGEwJE
RTEPMA0GA1UECAwGSGVzc2VuMRQwEgYDVQQKDAtwcml2YWN5aWRlYTEOMAwGA1UE
AwwFQ0EwMDEwHhcNMTkwMjA4MjIwMjM0WhcNMjAwMjA4MjIwMjM0WjBUMQswCQYD
VQQGEwJERTEPMA0GA1UECAwGSGVzc2VuMRQwEgYDVQQKDAtwcml2YWN5aWRlYTEe
MBwGA1UEAwwVcmVxdWVzdGVyLmxvY2FsZG9tYWluMIIBIjANBgkqhkiG9w0BAQEF
AAOCAQ8AMIIBCgKCAQEAzb4UT/rOAT9CIhsdnK/dktJ/22y3PjlDQ2sTA/EF9Ad0
vHZpKAuvGY7X/OPNxljyyn8IbVP8BwJEJMa0NEyMBP4zDkDiILoCc1r39U9jbszG
tt9UHTc5fVE2Jl+93D+oi2uirrad1iHn30G4eigqaEjKqC3t4elGXlpybbSEOIeR
/ZQRCyiExsIvKvsB+TZ6CXXRM4g8c0FbyL+UiXCh8MC5LlBTHrEXZGn0LYHgqQ0O
Mum6VYqF8RtvSXm0f4jDDT5UiJs9HziMBPPuamMr9cbbtIOqxHhBOn1L4cg+ccob
YVnqxsTKMl7J6b8SKebGw2P+oFXaevFgmE0m7fpwLQIDAQABo4IBDjCCAQowCwYD
VR0PBAQDAgWgMAkGA1UdEwQCMAAwEQYJYIZIAYb4QgEBBAQDAgZAMDMGCWCGSAGG
+EIBDQQmFiRPcGVuU1NMIEdlbmVyYXRlZCBTZXJ2ZXIgQ2VydGlmaWNhdGUwHQYD
VR0OBBYEFFM/7V0JB7Nle6tFySRbCXeACpbtMHQGA1UdIwRtMGuAFPSnwMyRRq9k
85HyJ/jIsm+KhzJzoUikRjBEMQswCQYDVQQGEwJERTEPMA0GA1UECAwGSGVzc2Vu
MRQwEgYDVQQKDAtwcml2YWN5aWRlYTEOMAwGA1UEAwwFQ0EwMDGCCQD7yOusg80S
BzATBgNVHSUEDDAKBggrBgEFBQcDATANBgkqhkiG9w0BAQsFAAOCAQEAVJwJT3Le
RxMPSjjQr0CzoyJl+BFmRRRVcdkcw5Na1Vj/r52bKwOVqq/fq3FydsN+VgqDDeNM
0cAsE6SRfy4HKAl8C8fq8t+kIHTtocNxH97o1AMNJshrBq5OaptyQt8GFDufXQXE
5mbWddcb0Vdyu14fFt0XzqPEORVRI8tE0fEYIVy/bAZ11auYTY7VdBIJMuAOTzN9
uLWYDgVOtogS4Uk74uRgVsPieQlgMSbvshq78V+M8e+bVbJB323+Kc/sLSwhHIHU
pKhOpXUdUilMLWNZ0ILPzh1hBeWrog5+iLStMW6Rt9GIJ+UKrnkLD8N8GoUzhnwc
mYi60uFyD2O0/g==
-----END CERTIFICATE-----
