Certificate:
    Data:
        Version: 3 (0x2)
        Serial Number: 268435677 (0x100000dd)
    Signature Algorithm: sha256WithRSAEncryption
        Issuer: C=DE, ST=Hessen, O=privacyidea, CN=CA001
        Validity
            Not Before: Feb  8 21:23:32 2019 GMT
            Not After : Feb  8 21:23:32 2020 GMT
        Subject: OU=realm1, CN=cornelius/emailAddress=user@localhost.localdomain
        Subject Public Key Info:
            Public Key Algorithm: rsaEncryption
                Public-Key: (2048 bit)
                Modulus:
                    00:be:3d:6f:dc:3e:bf:c0:8c:fb:e0:f9:e9:5f:ea:
                    e3:a9:f1:63:7d:79:07:00:b9:05:1d:14:fb:8b:2f:
                    f0:ad:46:4d:89:56:66:f5:0d:46:89:8f:f3:57:a6:
                    b1:6b:ca:df:f3:3f:64:1e:f5:17:d2:92:92:81:49:
                    df:ea:78:27:2d:1e:cc:2e:57:e5:34:4f:2c:5b:57:
                    57:db:b2:05:2d:0a:8c:6f:e3:29:ae:d2:b1:53:6d:
                    d1:7f:20:13:c7:14:0c:dc:8e:4b:ca:41:6b:d9:c2:
                    8d:50:14:73:4b:92:7e:ac:50:b6:a2:ef:bc:8e:a6:
                    56:43:bf:9c:ac:75:95:9a:8b:a1:40:7e:38:0d:95:
                    f8:a2:a5:f5:ee:0c:74:76:52:3b:a2:6e:ec:2c:22:
                    46:6c:80:4d:c0:92:b3:de:98:4f:6d:46:35:1e:02:
                    81:5d:33:1d:56:f4:1f:04:6a:0b:37:89:ff:5b:9a:
                    a3:4c:2e:d4:bf:e3:2e:42:b1:3f:f6:52:a6:06:72:
                    24:b3:b1:75:30:08:78:f4:de:3d:95:04:f0:7a:dd:
                    85:33:11:6c:55:90:25:db:4f:75:a7:a9:7f:c4:a1:
                    88:05:40:61:0f:bf:c0:54:f4:6e:29:ae:b7:db:69:
                    32:1d:49:f3:5d:79:de:ec:a7:61:cf:ab:bc:2a:62:
                    ea:3f
                Exponent: 65537 (0x10001)
        X509v3 extensions:
            X509v3 Key Usage: 
                Digital Signature, Key Encipherment
            X509v3 Basic Constraints: 
                CA:FALSE
            Netscape Cert Type: 
                SSL Server
            Netscape Comment: 
                OpenSSL Generated Server Certificate
            X509v3 Subject Key Identifier: 
                04:85:47:72:38:A4:3F:93:B1:C9:77:28:E8:5E:96:62:D6:78:2A:9E
            X509v3 Authority Key Identifier: 
                keyid:F4:A7:C0:CC:91:46:AF:64:F3:91:F2:27:F8:C8:B2:6F:8A:87:32:73
                DirName:/C=DE/ST=Hessen/O=privacyidea/CN=CA001
                serial:FB:C8:EB:AC:83:CD:12:07

            X509v3 Extended Key Usage: 
                TLS Web Server Authentication
    Signature Algorithm: sha256WithRSAEncryption
         6e:2f:21:b2:ab:7c:d7:48:d8:ca:7b:80:6f:06:8e:22:27:fa:
         ba:9e:cc:f5:73:31:10:89:f0:8d:0f:68:c3:f3:93:da:57:c7:
         54:b5:36:9d:fe:64:87:6c:01:ca:2c:02:d1:43:ad:34:71:43:
         7d:09:dc:f1:a6:e7:74:4f:d3:d7:bd:18:65:91:16:2f:82:48:
         b4:74:63:09:bf:ed:ef:f5:15:d2:a4:74:a8:88:e2:5f:48:78:
         54:e9:34:ac:ce:28:b9:8f:b3:56:47:31:01:75:91:2e:72:74:
         ee:52:cd:59:db:b4:7b:f2:73:fb:2c:58:b6:37:d3:4e:b3:81:
         9a:e3:36:0f:87:07:8e:5a:eb:99:03:d7:28:c6:e6:f1:e2:24:
         7a:e0:a0:79:6c:92:f5:32:e4:99:1e:92:32:f8:5d:9e:41:c7:
         d5:b0:94:b6:98:1a:c7:99:98:1a:bd:26:56:3a:24:e2:76:3c:
         7b:b7:c9:a6:6f:36:4d:c6:e1:15:d8:4e:9b:a1:14:f9:13:79:
         04:14:9c:d6:34:6e:30:fb:83:44:6f:6b:49:45:40:84:ff:16:
         95:84:d4:95:b6:31:06:98:18:07:ec:c0:86:7b:1b:fb:d4:8b:
         c9:76:02:3d:a9:f1:d7:45:3e:4d:47:3b:27:ac:70:3d:ba:48:
         7c:be:7c:7a
-----BEGIN CERTIFICATE-----
MIIEIjCCAwqgAwIBAgIEEAAA3TANBgkqhkiG9w0BAQsFADBEMQswCQYDVQQGEwJE
RTEPMA0GA1UECAwGSGVzc2VuMRQwEgYDVQQKDAtwcml2YWN5aWRlYTEOMAwGA1UE
AwwFQ0EwMDEwHhcNMTkwMjA4MjEyMzMyWhcNMjAwMjA4MjEyMzMyWjBQMQ8wDQYD
VQQLDAZyZWFsbTExEjAQBgNVBAMMCWNvcm5lbGl1czEpMCcGCSqGSIb3DQEJARYa
dXNlckBsb2NhbGhvc3QubG9jYWxkb21haW4wggEiMA0GCSqGSIb3DQEBAQUAA4IB
DwAwggEKAoIBAQC+PW/cPr/AjPvg+elf6uOp8WN9eQcAuQUdFPuLL/CtRk2JVmb1
DUaJj/NXprFryt/zP2Qe9RfSkpKBSd/qeCctHswuV+U0TyxbV1fbsgUtCoxv4ymu
0rFTbdF/IBPHFAzcjkvKQWvZwo1QFHNLkn6sULai77yOplZDv5ysdZWai6FAfjgN
lfiipfXuDHR2UjuibuwsIkZsgE3AkrPemE9tRjUeAoFdMx1W9B8Eags3if9bmqNM
LtS/4y5CsT/2UqYGciSzsXUwCHj03j2VBPB63YUzEWxVkCXbT3WnqX/EoYgFQGEP
v8BU9G4prrfbaTIdSfNded7sp2HPq7wqYuo/AgMBAAGjggEOMIIBCjALBgNVHQ8E
BAMCBaAwCQYDVR0TBAIwADARBglghkgBhvhCAQEEBAMCBkAwMwYJYIZIAYb4QgEN
BCYWJE9wZW5TU0wgR2VuZXJhdGVkIFNlcnZlciBDZXJ0aWZpY2F0ZTAdBgNVHQ4E
FgQUBIVHcjikP5OxyXco6F6WYtZ4Kp4wdAYDVR0jBG0wa4AU9KfAzJFGr2TzkfIn
+Miyb4qHMnOhSKRGMEQxCzAJBgNVBAYTAkRFMQ8wDQYDVQQIDAZIZXNzZW4xFDAS
BgNVBAoMC3ByaXZhY3lpZGVhMQ4wDAYDVQQDDAVDQTAwMYIJAPvI66yDzRIHMBMG
A1UdJQQMMAoGCCsGAQUFBwMBMA0GCSqGSIb3DQEBCwUAA4IBAQBuLyGyq3zXSNjK
e4BvBo4iJ/q6nsz1czEQifCND2jD85PaV8dUtTad/mSHbAHKLALRQ600cUN9Cdzx
pud0T9PXvRhlkRYvgki0dGMJv+3v9RXSpHSoiOJfSHhU6TSszii5j7NWRzEBdZEu
cnTuUs1Z27R78nP7LFi2N9NOs4Ga4zYPhweOWuuZA9coxubx4iR64KB5bJL1MuSZ
HpIy+F2eQcfVsJS2mBrHmZgavSZWOiTidjx7t8mmbzZNxuEV2E6boRT5E3kEFJzW
NG4w+4NEb2tJRUCE/xaVhNSVtjEGmBgH7MCGexv71IvJdgI9qfHXRT5NRzsnrHA9
ukh8vnx6
-----END CERTIFICATE-----
