Certificate:
    Data:
        Version: 3 (0x2)
        Serial Number: 268435682 (0x100000e2)
    Signature Algorithm: sha256WithRSAEncryption
        Issuer: C=DE, ST=Hessen, O=privacyidea, CN=CA001
        Validity
            Not Before: Feb  8 21:37:41 2019 GMT
            Not After : Feb  8 21:37:41 2020 GMT
        Subject: CN=Steve Test/emailAddress=steve@openssl.org
        Subject Public Key Info:
            Public Key Algorithm: rsaEncryption
                Public-Key: (2048 bit)
                Modulus:
                    00:d2:81:89:20:51:48:0f:73:f4:11:32:24:d5:1f:
                    1c:fd:5c:f5:b6:e6:c5:f0:52:81:dc:d2:af:66:4a:
                    7c:93:31:61:5c:af:d1:6d:06:70:03:60:7c:72:0c:
                    88:dd:49:cd:9e:02:6c:d2:5a:d7:53:0f:f3:da:be:
                    69:64:b5:0f:0c:00:e3:b3:50:47:a3:b3:9b:ba:13:
                    50:d6:58:5a:4b:ab:39:e0:11:ca:0a:27:67:03:78:
                    22:66:6d:92:1e:1b:5c:49:ae:e6:6b:d1:8e:3b:9d:
                    06:d3:c6:ac:4d:53:43:10:ab:e8:96:c1:87:82:97:
                    99:8f:20:d3:99:12:37:31:84:e1:8a:ff:29:03:5f:
                    22:90:3e:7f:9b:e0:20:c1:ad:dc:ae:4c:39:1a:31:
                    96:17:02:8c:b2:d9:b4:0d:20:12:9b:7d:86:54:fd:
                    33:fd:c1:2a:62:46:f8:60:96:cf:6e:01:6f:22:df:
                    13:47:e7:97:ec:05:72:23:a3:62:f8:fa:ef:ac:9c:
                    72:f0:37:cb:2f:37:cf:90:a8:27:51:86:c6:d7:78:
                    08:8f:7e:25:a2:15:70:a2:fb:1c:b6:15:5e:a0:97:
                    8b:81:4c:09:28:8a:27:3b:94:bc:71:db:5b:71:37:
                    9a:2b:16:e0:6f:b5:c9:f5:4b:4f:20:ba:65:cf:af:
                    ad:ad
                Exponent: 65537 (0x10001)
        X509v3 extensions:
            X509v3 Key Usage: 
                Digital Signature, Key Encipherment
            X509v3 Basic Constraints: 
                CA:FALSE
            Netscape Cert Type: 
                SSL Server
            Netscape Comment: 
                OpenSSL Generated Server Certificate
            X509v3 Subject Key Identifier: 
                E5:25:6D:3E:AF:0D:DD:3F:4C:F2:45:19:39:D5:14:DB:7E:9C:C0:AD
            X509v3 Authority Key Identifier: 
                keyid:F4:A7:C0:CC:91:46:AF:64:F3:91:F2:27:F8:C8:B2:6F:8A:87:32:73
                DirName:/C=DE/ST=Hessen/O=privacyidea/CN=CA001
                serial:FB:C8:EB:AC:83:CD:12:07

            X509v3 Extended Key Usage: 
                TLS Web Server Authentication
    Signature Algorithm: sha256WithRSAEncryption
         6e:7d:1e:65:74:4d:8d:c3:63:2c:9b:2f:58:43:ad:26:b8:91:
         fe:2c:60:a2:ee:85:22:30:e2:94:d6:43:3b:fe:b6:1d:64:1f:
         91:c1:a8:22:42:c5:80:40:29:fd:d5:97:57:cf:2a:56:d4:4a:
         bd:9b:1b:c2:07:fb:b0:29:51:77:07:3f:a8:df:aa:a6:e8:cf:
         b5:e2:fe:56:fa:0f:6f:f4:25:2c:92:b8:d9:d4:cb:81:9e:53:
         7e:36:93:1b:4c:d4:60:14:96:81:4c:96:5d:62:a0:fa:20:39:
         20:91:0d:23:62:43:87:88:86:f0:06:de:ae:1f:50:df:8f:cd:
         e3:c1:12:1c:5d:34:4c:6f:5d:21:ca:f1:a6:e3:63:35:c6:83:
         93:ad:a8:0e:73:b9:68:72:59:b6:e6:28:ce:fb:6f:27:c6:ea:
         37:8b:2a:55:fe:66:35:0b:11:ac:14:df:79:8c:5b:0f:78:20:
         ab:a3:90:b7:ad:d3:ba:6c:5f:ec:cf:ef:77:02:6b:5b:a0:88:
         49:43:c0:4f:33:fd:14:8f:5c:08:2d:9d:bd:cc:2e:a8:c7:1e:
         ba:e3:65:f2:45:d3:f8:ba:8f:34:50:aa:23:06:37:68:01:a5:
         46:1d:88:dc:13:a7:1b:8a:d6:f3:3f:3e:1d:4e:58:37:c1:2f:
         3a:6d:e4:d8
-----BEGIN CERTIFICATE-----
MIIECTCCAvGgAwIBAgIEEAAA4jANBgkqhkiG9w0BAQsFADBEMQswCQYDVQQGEwJE
RTEPMA0GA1UECAwGSGVzc2VuMRQwEgYDVQQKDAtwcml2YWN5aWRlYTEOMAwGA1UE
AwwFQ0EwMDEwHhcNMTkwMjA4MjEzNzQxWhcNMjAwMjA4MjEzNzQxWjA3MRMwEQYD
VQQDDApTdGV2ZSBUZXN0MSAwHgYJKoZIhvcNAQkBFhFzdGV2ZUBvcGVuc3NsLm9y
ZzCCASIwDQYJKoZIhvcNAQEBBQADggEPADCCAQoCggEBANKBiSBRSA9z9BEyJNUf
HP1c9bbmxfBSgdzSr2ZKfJMxYVyv0W0GcANgfHIMiN1JzZ4CbNJa11MP89q+aWS1
DwwA47NQR6Ozm7oTUNZYWkurOeARygonZwN4ImZtkh4bXEmu5mvRjjudBtPGrE1T
QxCr6JbBh4KXmY8g05kSNzGE4Yr/KQNfIpA+f5vgIMGt3K5MORoxlhcCjLLZtA0g
Ept9hlT9M/3BKmJG+GCWz24BbyLfE0fnl+wFciOjYvj676yccvA3yy83z5CoJ1GG
xtd4CI9+JaIVcKL7HLYVXqCXi4FMCSiKJzuUvHHbW3E3misW4G+1yfVLTyC6Zc+v
ra0CAwEAAaOCAQ4wggEKMAsGA1UdDwQEAwIFoDAJBgNVHRMEAjAAMBEGCWCGSAGG
+EIBAQQEAwIGQDAzBglghkgBhvhCAQ0EJhYkT3BlblNTTCBHZW5lcmF0ZWQgU2Vy
dmVyIENlcnRpZmljYXRlMB0GA1UdDgQWBBTlJW0+rw3dP0zyRRk51RTbfpzArTB0
BgNVHSMEbTBrgBT0p8DMkUavZPOR8if4yLJviocyc6FIpEYwRDELMAkGA1UEBhMC
REUxDzANBgNVBAgMBkhlc3NlbjEUMBIGA1UECgwLcHJpdmFjeWlkZWExDjAMBgNV
BAMMBUNBMDAxggkA+8jrrIPNEgcwEwYDVR0lBAwwCgYIKwYBBQUHAwEwDQYJKoZI
hvcNAQELBQADggEBAG59HmV0TY3DYyybL1hDrSa4kf4sYKLuhSIw4pTWQzv+th1k
H5HBqCJCxYBAKf3Vl1fPKlbUSr2bG8IH+7ApUXcHP6jfqqboz7Xi/lb6D2/0JSyS
uNnUy4GeU342kxtM1GAUloFMll1ioPogOSCRDSNiQ4eIhvAG3q4fUN+PzePBEhxd
NExvXSHK8abjYzXGg5OtqA5zuWhyWbbmKM77byfG6jeLKlX+ZjULEawU33mMWw94
IKujkLet07psX+zP73cCa1ugiElDwE8z/RSPXAgtnb3MLqjHHrrjZfJF0/i6jzRQ
qiMGN2gBpUYdiNwTpxuK1vM/Ph1OWDfBLzpt5Ng=
-----END CERTIFICATE-----
