Certificate:
    Data:
        Version: 3 (0x2)
        Serial Number: 268435686 (0x100000e6)
    Signature Algorithm: sha256WithRSAEncryption
        Issuer: C=DE, ST=Hessen, O=privacyidea, CN=CA001
        Validity
            Not Before: Feb  8 21:49:07 2019 GMT
            Not After : Feb  8 21:49:07 2020 GMT
        Subject: CN=selfservice,CN=user,O=realm1/emailAddress=meine
        Subject Public Key Info:
            Public Key Algorithm: rsaEncryption
                Public-Key: (2048 bit)
                Modulus:
                    00:cf:3c:d4:33:0e:12:c4:e6:da:cd:b6:56:a1:1c:
                    26:bb:26:1c:8a:4a:73:a8:58:8a:b6:1e:b3:8b:99:
                    d2:1d:07:c2:92:89:79:c0:69:d8:c8:df:28:61:98:
                    1e:b3:fe:ae:2b:bd:78:a9:f7:6e:47:dc:a3:a0:16:
                    8c:85:02:c1:4e:92:fd:72:6e:f0:c8:03:29:9b:b8:
                    00:6e:c0:83:95:c8:34:20:36:9c:b3:e5:e4:e6:76:
                    73:a3:1a:ad:40:96:e0:53:54:00:ec:76:79:9a:c6:
                    0d:7e:b6:bd:29:ec:83:f3:cb:89:a4:cb:6c:00:ba:
                    0c:c5:78:0f:ff:69:b8:94:f4:04:70:43:3f:d8:9e:
                    d7:a7:fb:5d:ce:75:8e:da:e7:c4:07:b1:9d:de:6f:
                    88:4b:b6:4d:9a:cf:f9:bc:fa:9f:cd:32:6d:f6:3a:
                    0b:0d:23:42:78:ec:97:42:bf:0e:4d:60:56:e1:d3:
                    02:f2:19:cb:84:57:90:e5:70:a1:a2:83:35:86:e2:
                    da:86:9f:f9:8a:c4:79:b3:52:28:da:cb:bb:34:ca:
                    d3:da:91:4a:cf:8d:76:a2:b2:6b:9b:f9:96:fd:09:
                    2a:da:11:23:4d:f0:cb:d6:b2:b1:0e:12:6c:9a:19:
                    65:98:87:ca:e4:ee:24:ce:44:ac:90:8f:9d:1b:c5:
                    2a:9d
                Exponent: 65537 (0x10001)
        X509v3 extensions:
            X509v3 Key Usage: 
                Digital Signature, Key Encipherment
            X509v3 Basic Constraints: 
                CA:FALSE
            Netscape Cert Type: 
                SSL Server
            Netscape Comment: 
                OpenSSL Generated Server Certificate
            X509v3 Subject Key Identifier: 
                4D:07:90:AD:FF:1D:0D:E7:1A:DD:D6:2E:FA:BA:34:CB:AA:1F:24:C6
            X509v3 Authority Key Identifier: 
                keyid:F4:A7:C0:CC:91:46:AF:64:F3:91:F2:27:F8:C8:B2:6F:8A:87:32:73
                DirName:/C=DE/ST=Hessen/O=privacyidea/CN=CA001
                serial:FB:C8:EB:AC:83:CD:12:07

            X509v3 Extended Key Usage: 
                TLS Web Server Authentication
    Signature Algorithm: sha256WithRSAEncryption
         7e:93:29:a0:12:f9:91:4f:09:da:7b:66:90:d5:7f:94:bc:b0:
         e6:f1:85:de:a9:07:8a:25:1c:7d:de:bb:f7:24:73:11:87:82:
         05:12:6f:dc:53:10:8f:37:b8:3b:29:8e:ac:39:b6:62:b0:23:
         40:b2:ac:52:ae:20:4f:4c:04:3c:69:70:57:aa:3f:96:d6:ce:
         9e:36:f1:ee:01:7c:96:75:01:09:4e:70:5d:c3:52:2d:db:84:
         2a:04:09:fa:56:99:1c:7f:8f:6d:19:37:3e:9b:79:9a:f8:59:
         20:60:55:42:5f:13:bc:ec:27:71:5d:e3:12:91:67:36:74:44:
         be:f0:b6:83:75:7f:ed:22:b0:a3:b8:f9:bf:42:96:ef:f2:80:
         9a:f8:1e:f3:b1:14:6e:79:e4:7c:ae:29:44:1a:6d:be:27:bf:
         7b:3a:29:ff:7b:aa:61:5c:ba:61:ef:74:63:03:ec:cd:f7:1e:
         b8:fa:36:19:80:2b:ff:bb:8f:87:b9:5f:04:e5:45:9d:85:c0:
         c1:20:03:4e:f6:92:30:a7:c1:47:11:2b:39:5c:87:23:b5:e0:
         c6:5b:00:94:88:a8:7b:85:be:37:f1:2a:10:4c:c6:48:1a:c1:
         3e:68:6b:eb:ac:45:a3:69:cf:e6:e3:5f:2c:7d:00:86:8b:e5:
         56:37:e0:ab
-----BEGIN CERTIFICATE-----
MIIEDzCCAvegAwIBAgIEEAAA5jANBgkqhkiG9w0BAQsFADBEMQswCQYDVQQGEwJE
RTEPMA0GA1UECAwGSGVzc2VuMRQwEgYDVQQKDAtwcml2YWN5aWRlYTEOMAwGA1UE
AwwFQ0EwMDEwHhcNMTkwMjA4MjE0OTA3WhcNMjAwMjA4MjE0OTA3WjA9MSUwIwYD
VQQDDBxzZWxmc2VydmljZSxDTj11c2VyLE89cmVhbG0xMRQwEgYJKoZIhvcNAQkB
FgVtZWluZTCCASIwDQYJKoZIhvcNAQEBBQADggEPADCCAQoCggEBAM881DMOEsTm
2s22VqEcJrsmHIpKc6hYirYes4uZ0h0HwpKJecBp2MjfKGGYHrP+riu9eKn3bkfc
o6AWjIUCwU6S/XJu8MgDKZu4AG7Ag5XINCA2nLPl5OZ2c6MarUCW4FNUAOx2eZrG
DX62vSnsg/PLiaTLbAC6DMV4D/9puJT0BHBDP9ie16f7Xc51jtrnxAexnd5viEu2
TZrP+bz6n80ybfY6Cw0jQnjsl0K/Dk1gVuHTAvIZy4RXkOVwoaKDNYbi2oaf+YrE
ebNSKNrLuzTK09qRSs+NdqKya5v5lv0JKtoRI03wy9aysQ4SbJoZZZiHyuTuJM5E
rJCPnRvFKp0CAwEAAaOCAQ4wggEKMAsGA1UdDwQEAwIFoDAJBgNVHRMEAjAAMBEG
CWCGSAGG+EIBAQQEAwIGQDAzBglghkgBhvhCAQ0EJhYkT3BlblNTTCBHZW5lcmF0
ZWQgU2VydmVyIENlcnRpZmljYXRlMB0GA1UdDgQWBBRNB5Ct/x0N5xrd1i76ujTL
qh8kxjB0BgNVHSMEbTBrgBT0p8DMkUavZPOR8if4yLJviocyc6FIpEYwRDELMAkG
A1UEBhMCREUxDzANBgNVBAgMBkhlc3NlbjEUMBIGA1UECgwLcHJpdmFjeWlkZWEx
DjAMBgNVBAMMBUNBMDAxggkA+8jrrIPNEgcwEwYDVR0lBAwwCgYIKwYBBQUHAwEw
DQYJKoZIhvcNAQELBQADggEBAH6TKaAS+ZFPCdp7ZpDVf5S8sObxhd6pB4olHH3e
u/ckcxGHggUSb9xTEI83uDspjqw5tmKwI0CyrFKuIE9MBDxpcFeqP5bWzp428e4B
fJZ1AQlOcF3DUi3bhCoECfpWmRx/j20ZNz6beZr4WSBgVUJfE7zsJ3Fd4xKRZzZ0
RL7wtoN1f+0isKO4+b9Clu/ygJr4HvOxFG555HyuKUQabb4nv3s6Kf97qmFcumHv
dGMD7M33Hrj6NhmAK/+7j4e5XwTlRZ2FwMEgA072kjCnwUcRKzlchyO14MZbAJSI
qHuFvjfxKhBMxkgawT5oa+usRaNpz+bjXyx9AIaL5VY34Ks=
-----END CERTIFICATE-----
