Certificate:
    Data:
        Version: 3 (0x2)
        Serial Number: 268435679 (0x100000df)
    Signature Algorithm: sha256WithRSAEncryption
        Issuer: C=DE, ST=Hessen, O=privacyidea, CN=CA001
        Validity
            Not Before: Feb  8 21:35:20 2019 GMT
            Not After : Feb  8 21:35:20 2020 GMT
        Subject: C=DE, ST=Hessen, O=privacyidea, CN=requester.localdomain
        Subject Public Key Info:
            Public Key Algorithm: rsaEncryption
                Public-Key: (2048 bit)
                Modulus:
                    00:cd:be:14:4f:fa:ce:01:3f:42:22:1b:1d:9c:af:
                    dd:92:d2:7f:db:6c:b7:3e:39:43:43:6b:13:03:f1:
                    05:f4:07:74:bc:76:69:28:0b:af:19:8e:d7:fc:e3:
                    cd:c6:58:f2:ca:7f:08:6d:53:fc:07:02:44:24:c6:
                    b4:34:4c:8c:04:fe:33:0e:40:e2:20:ba:02:73:5a:
                    f7:f5:4f:63:6e:cc:c6:b6:df:54:1d:37:39:7d:51:
                    36:26:5f:bd:dc:3f:a8:8b:6b:a2:ae:b6:9d:d6:21:
                    e7:df:41:b8:7a:28:2a:68:48:ca:a8:2d:ed:e1:e9:
                    46:5e:5a:72:6d:b4:84:38:87:91:fd:94:11:0b:28:
                    84:c6:c2:2f:2a:fb:01:f9:36:7a:09:75:d1:33:88:
                    3c:73:41:5b:c8:bf:94:89:70:a1:f0:c0:b9:2e:50:
                    53:1e:b1:17:64:69:f4:2d:81:e0:a9:0d:0e:32:e9:
                    ba:55:8a:85:f1:1b:6f:49:79:b4:7f:88:c3:0d:3e:
                    54:88:9b:3d:1f:38:8c:04:f3:ee:6a:63:2b:f5:c6:
                    db:b4:83:aa:c4:78:41:3a:7d:4b:e1:c8:3e:71:ca:
                    1b:61:59:ea:c6:c4:ca:32:5e:c9:e9:bf:12:29:e6:
                    c6:c3:63:fe:a0:55:da:7a:f1:60:98:4d:26:ed:fa:
                    70:2d
                Exponent: 65537 (0x10001)
        X509v3 extensions:
            X509v3 Key Usage: 
                Digital Signature, Key Encipherment
            X509v3 Basic Constraints: 
                CA:FALSE
            Netscape Cert Type: 
                SSL Server
            Netscape Comment: 
                OpenSSL Generated Server Certificate
            X509v3 Subject Key Identifier: 
                53:3F:ED:5D:09:07:B3:65:7B:AB:45:C9:24:5B:09:77:80:0A:96:ED
            X509v3 Authority Key Identifier: 
                keyid:F4:A7:C0:CC:91:46:AF:64:F3:91:F2:27:F8:C8:B2:6F:8A:87:32:73
                DirName:/C=DE/ST=Hessen/O=privacyidea/CN=CA001
                serial:FB:C8:EB:AC:83:CD:12:07

            X509v3 Extended Key Usage: 
                TLS Web Server Authentication
    Signature Algorithm: sha256WithRSAEncryption
         3b:49:99:de:14:93:46:d8:db:85:0a:cf:3c:d7:55:22:05:9c:
         7a:d9:b3:34:c2:21:b7:e7:bd:e2:b6:af:9f:43:dd:40:e6:cb:
         3f:3e:99:c1:b4:d3:61:15:5a:d0:f0:af:91:6c:1d:78:59:e5:
         b2:12:eb:54:73:a0:d9:51:8d:e4:f0:fb:0f:22:c7:c5:90:81:
         5e:44:74:fb:29:da:67:61:71:04:e8:dc:82:3a:d4:1e:59:e7:
         24:fd:1a:23:ec:5e:6f:1e:1e:c1:f3:29:00:be:f7:98:92:37:
         ed:2d:48:81:e6:05:b0:17:0a:1c:b5:10:10:0b:98:8f:41:d4:
         5f:f9:e5:bd:26:17:c4:e2:6d:28:0e:34:58:74:cc:ff:88:75:
         fa:82:aa:4d:39:03:ff:c0:00:fb:32:ed:bb:4b:e9:b5:10:e3:
         73:f5:55:e6:88:39:db:fc:06:31:ba:bd:ed:94:f9:8c:46:6f:
         67:b8:ee:33:5f:11:46:d7:21:8d:20:bf:61:28:08:6c:95:07:
         54:92:0e:1e:5a:ae:1f:57:a7:78:ce:be:bf:9c:41:c4:03:ee:
         08:a5:4c:38:3e:c2:85:9f:e9:05:64:a1:80:b6:34:b7:ab:d3:
         f5:16:e7:c4:bf:62:6f:29:04:11:bf:50:7a:b4:4f:8c:d9:c2:
         dc:83:e4:2d
-----BEGIN CERTIFICATE-----
MIIEJjCCAw6gAwIBAgIEEAAA3zANBgkqhkiG9w0BAQsFADBEMQswCQYDVQQGEwJE
RTEPMA0GA1UECAwGSGVzc2VuMRQwEgYDVQQKDAtwcml2YWN5aWRlYTEOMAwGA1UE
AwwFQ0EwMDEwHhcNMTkwMjA4MjEzNTIwWhcNMjAwMjA4MjEzNTIwWjBUMQswCQYD
VQQGEwJERTEPMA0GA1UECAwGSGVzc2VuMRQwEgYDVQQKDAtwcml2YWN5aWRlYTEe
MBwGA1UEAwwVcmVxdWVzdGVyLmxvY2FsZG9tYWluMIIBIjANBgkqhkiG9w0BAQEF
AAOCAQ8AMIIBCgKCAQEAzb4UT/rOAT9CIhsdnK/dktJ/22y3PjlDQ2sTA/EF9Ad0
vHZpKAuvGY7X/OPNxljyyn8IbVP8BwJEJMa0NEyMBP4zDkDiILoCc1r39U9jbszG
tt9UHTc5fVE2Jl+93D+oi2uirrad1iHn30G4eigqaEjKqC3t4elGXlpybbSEOIeR
/ZQRCyiExsIvKvsB+TZ6CXXRM4g8c0FbyL+UiXCh8MC5LlBTHrEXZGn0LYHgqQ0O
Mum6VYqF8RtvSXm0f4jDDT5UiJs9HziMBPPuamMr9cbbtIOqxHhBOn1L4cg+ccob
YVnqxsTKMl7J6b8SKebGw2P+oFXaevFgmE0m7fpwLQIDAQABo4IBDjCCAQowCwYD
VR0PBAQDAgWgMAkGA1UdEwQCMAAwEQYJYIZIAYb4QgEBBAQDAgZAMDMGCWCGSAGG
+EIBDQQmFiRPcGVuU1NMIEdlbmVyYXRlZCBTZXJ2ZXIgQ2VydGlmaWNhdGUwHQYD
VR0OBBYEFFM/7V0JB7Nle6tFySRbCXeACpbtMHQGA1UdIwRtMGuAFPSnwMyRRq9k
85HyJ/jIsm+KhzJzoUikRjBEMQswCQYDVQQGEwJERTEPMA0GA1UECAwGSGVzc2Vu
MRQwEgYDVQQKDAtwcml2YWN5aWRlYTEOMAwGA1UEAwwFQ0EwMDGCCQD7yOusg80S
BzATBgNVHSUEDDAKBggrBgEFBQcDATANBgkqhkiG9w0BAQsFAAOCAQEAO0mZ3hST
RtjbhQrPPNdVIgWcetmzNMIht+e94ravn0PdQObLPz6ZwbTTYRVa0PCvkWwdeFnl
shLrVHOg2VGN5PD7DyLHxZCBXkR0+ynaZ2FxBOjcgjrUHlnnJP0aI+xebx4ewfMp
AL73mJI37S1IgeYFsBcKHLUQEAuYj0HUX/nlvSYXxOJtKA40WHTM/4h1+oKqTTkD
/8AA+zLtu0vptRDjc/VV5og52/wGMbq97ZT5jEZvZ7juM18RRtchjSC/YSgIbJUH
VJIOHlquH1eneM6+v5xBxAPuCKVMOD7ChZ/pBWShgLY0t6vT9RbnxL9ibykEEb9Q
erRPjNnC3IPkLQ==
-----END CERTIFICATE-----
