Certificate:
    Data:
        Version: 3 (0x2)
        Serial Number: 268435675 (0x100000db)
    Signature Algorithm: sha256WithRSAEncryption
        Issuer: C=DE, ST=Hessen, O=privacyidea, CN=CA001
        Validity
            Not Before: Feb  8 21:16:59 2019 GMT
            Not After : Feb 27 21:16:59 2021 GMT
        Subject: CN=Steve Test/emailAddress=steve@openssl.org
        Subject Public Key Info:
            Public Key Algorithm: rsaEncryption
                Public-Key: (2048 bit)
                Modulus:
                    00:d2:81:89:20:51:48:0f:73:f4:11:32:24:d5:1f:
                    1c:fd:5c:f5:b6:e6:c5:f0:52:81:dc:d2:af:66:4a:
                    7c:93:31:61:5c:af:d1:6d:06:70:03:60:7c:72:0c:
                    88:dd:49:cd:9e:02:6c:d2:5a:d7:53:0f:f3:da:be:
                    69:64:b5:0f:0c:00:e3:b3:50:47:a3:b3:9b:ba:13:
                    50:d6:58:5a:4b:ab:39:e0:11:ca:0a:27:67:03:78:
                    22:66:6d:92:1e:1b:5c:49:ae:e6:6b:d1:8e:3b:9d:
                    06:d3:c6:ac:4d:53:43:10:ab:e8:96:c1:87:82:97:
                    99:8f:20:d3:99:12:37:31:84:e1:8a:ff:29:03:5f:
                    22:90:3e:7f:9b:e0:20:c1:ad:dc:ae:4c:39:1a:31:
                    96:17:02:8c:b2:d9:b4:0d:20:12:9b:7d:86:54:fd:
                    33:fd:c1:2a:62:46:f8:60:96:cf:6e:01:6f:22:df:
                    13:47:e7:97:ec:05:72:23:a3:62:f8:fa:ef:ac:9c:
                    72:f0:37:cb:2f:37:cf:90:a8:27:51:86:c6:d7:78:
                    08:8f:7e:25:a2:15:70:a2:fb:1c:b6:15:5e:a0:97:
                    8b:81:4c:09:28:8a:27:3b:94:bc:71:db:5b:71:37:
                    9a:2b:16:e0:6f:b5:c9:f5:4b:4f:20:ba:65:cf:af:
                    ad:ad
                Exponent: 65537 (0x10001)
        X509v3 extensions:
            X509v3 Key Usage: 
                Digital Signature, Key Encipherment
            X509v3 Basic Constraints: 
                CA:FALSE
            Netscape Cert Type: 
                SSL Server
            Netscape Comment: 
                OpenSSL Generated Server Certificate
            X509v3 Subject Key Identifier: 
                E5:25:6D:3E:AF:0D:DD:3F:4C:F2:45:19:39:D5:14:DB:7E:9C:C0:AD
            X509v3 Authority Key Identifier: 
                keyid:F4:A7:C0:CC:91:46:AF:64:F3:91:F2:27:F8:C8:B2:6F:8A:87:32:73
                DirName:/C=DE/ST=Hessen/O=privacyidea/CN=CA001
                serial:FB:C8:EB:AC:83:CD:12:07

            X509v3 Extended Key Usage: 
                TLS Web Server Authentication
    Signature Algorithm: sha256WithRSAEncryption
         bf:5e:b0:9c:4e:c5:0c:ee:a5:43:96:4f:9d:b5:07:c8:f0:30:
         15:55:4d:fd:68:55:df:67:48:ed:6f:b2:a2:99:5f:39:a8:93:
         66:40:a6:71:dc:d9:a1:0c:35:18:3c:62:d6:f1:80:e0:e8:8f:
         ba:b6:31:24:79:3d:bb:34:be:ee:1f:4f:2f:91:20:f4:73:22:
         e3:c6:93:0d:22:52:7b:58:e8:6a:4e:ef:97:0a:50:c0:f4:31:
         0f:43:74:98:fa:bf:fe:71:48:15:bf:68:c8:48:ff:ea:70:cc:
         c7:01:fc:b2:b8:87:98:13:0c:40:7c:0d:55:bb:ef:bc:6a:83:
         be:cb:30:de:86:88:39:6c:92:ca:68:f3:79:4d:48:27:6f:72:
         0a:f1:04:8f:bd:fe:3f:fa:87:c9:93:23:d1:f4:20:36:68:ee:
         6e:c3:3d:17:5e:2b:7b:0c:24:39:47:f3:53:34:5a:4e:f1:e0:
         fa:7e:39:66:2a:47:3c:ef:fb:87:d4:c7:27:d2:74:dc:1a:60:
         d4:30:3f:f3:22:23:82:50:d6:d8:54:ee:58:af:77:c7:cf:a5:
         e5:be:30:5d:e7:31:b7:68:83:bb:2a:ed:bc:8e:87:a4:4a:6a:
         45:6b:62:b5:06:d6:b7:02:3a:04:de:e1:4d:b8:ba:ef:18:6d:
         51:59:5c:17
-----BEGIN CERTIFICATE-----
MIIECTCCAvGgAwIBAgIEEAAA2zANBgkqhkiG9w0BAQsFADBEMQswCQYDVQQGEwJE
RTEPMA0GA1UECAwGSGVzc2VuMRQwEgYDVQQKDAtwcml2YWN5aWRlYTEOMAwGA1UE
AwwFQ0EwMDEwHhcNMTkwMjA4MjExNjU5WhcNMjEwMjI3MjExNjU5WjA3MRMwEQYD
VQQDDApTdGV2ZSBUZXN0MSAwHgYJKoZIhvcNAQkBFhFzdGV2ZUBvcGVuc3NsLm9y
ZzCCASIwDQYJKoZIhvcNAQEBBQADggEPADCCAQoCggEBANKBiSBRSA9z9BEyJNUf
HP1c9bbmxfBSgdzSr2ZKfJMxYVyv0W0GcANgfHIMiN1JzZ4CbNJa11MP89q+aWS1
DwwA47NQR6Ozm7oTUNZYWkurOeARygonZwN4ImZtkh4bXEmu5mvRjjudBtPGrE1T
QxCr6JbBh4KXmY8g05kSNzGE4Yr/KQNfIpA+f5vgIMGt3K5MORoxlhcCjLLZtA0g
Ept9hlT9M/3BKmJG+GCWz24BbyLfE0fnl+wFciOjYvj676yccvA3yy83z5CoJ1GG
xtd4CI9+JaIVcKL7HLYVXqCXi4FMCSiKJzuUvHHbW3E3misW4G+1yfVLTyC6Zc+v
ra0CAwEAAaOCAQ4wggEKMAsGA1UdDwQEAwIFoDAJBgNVHRMEAjAAMBEGCWCGSAGG
+EIBAQQEAwIGQDAzBglghkgBhvhCAQ0EJhYkT3BlblNTTCBHZW5lcmF0ZWQgU2Vy
dmVyIENlcnRpZmljYXRlMB0GA1UdDgQWBBTlJW0+rw3dP0zyRRk51RTbfpzArTB0
BgNVHSMEbTBrgBT0p8DMkUavZPOR8if4yLJviocyc6FIpEYwRDELMAkGA1UEBhMC
REUxDzANBgNVBAgMBkhlc3NlbjEUMBIGA1UECgwLcHJpdmFjeWlkZWExDjAMBgNV
BAMMBUNBMDAxggkA+8jrrIPNEgcwEwYDVR0lBAwwCgYIKwYBBQUHAwEwDQYJKoZI
hvcNAQELBQADggEBAL9esJxOxQzupUOWT521B8jwMBVVTf1oVd9nSO1vsqKZXzmo
k2ZApnHc2aEMNRg8YtbxgODoj7q2MSR5Pbs0vu4fTy+RIPRzIuPGkw0iUntY6GpO
75cKUMD0MQ9DdJj6v/5xSBW/aMhI/+pwzMcB/LK4h5gTDEB8DVW777xqg77LMN6G
iDlskspo83lNSCdvcgrxBI+9/j/6h8mTI9H0IDZo7m7DPRdeK3sMJDlH81M0Wk7x
4Pp+OWYqRzzv+4fUxyfSdNwaYNQwP/MiI4JQ1thU7livd8fPpeW+MF3nMbdog7sq
7byOh6RKakVrYrUG1rcCOgTe4U24uu8YbVFZXBc=
-----END CERTIFICATE-----
