Certificate:
    Data:
        Version: 3 (0x2)
        Serial Number: 268435687 (0x100000e7)
    Signature Algorithm: sha256WithRSAEncryption
        Issuer: C=DE, ST=Hessen, O=privacyidea, CN=CA001
        Validity
            Not Before: Feb  8 21:55:42 2019 GMT
            Not After : Feb  8 21:55:42 2020 GMT
        Subject: C=DE, ST=Hessen, O=privacyidea, CN=requester.localdomain
        Subject Public Key Info:
            Public Key Algorithm: rsaEncryption
                Public-Key: (2048 bit)
                Modulus:
                    00:cd:be:14:4f:fa:ce:01:3f:42:22:1b:1d:9c:af:
                    dd:92:d2:7f:db:6c:b7:3e:39:43:43:6b:13:03:f1:
                    05:f4:07:74:bc:76:69:28:0b:af:19:8e:d7:fc:e3:
                    cd:c6:58:f2:ca:7f:08:6d:53:fc:07:02:44:24:c6:
                    b4:34:4c:8c:04:fe:33:0e:40:e2:20:ba:02:73:5a:
                    f7:f5:4f:63:6e:cc:c6:b6:df:54:1d:37:39:7d:51:
                    36:26:5f:bd:dc:3f:a8:8b:6b:a2:ae:b6:9d:d6:21:
                    e7:df:41:b8:7a:28:2a:68:48:ca:a8:2d:ed:e1:e9:
                    46:5e:5a:72:6d:b4:84:38:87:91:fd:94:11:0b:28:
                    84:c6:c2:2f:2a:fb:01:f9:36:7a:09:75:d1:33:88:
                    3c:73:41:5b:c8:bf:94:89:70:a1:f0:c0:b9:2e:50:
                    53:1e:b1:17:64:69:f4:2d:81:e0:a9:0d:0e:32:e9:
                    ba:55:8a:85:f1:1b:6f:49:79:b4:7f:88:c3:0d:3e:
                    54:88:9b:3d:1f:38:8c:04:f3:ee:6a:63:2b:f5:c6:
                    db:b4:83:aa:c4:78:41:3a:7d:4b:e1:c8:3e:71:ca:
                    1b:61:59:ea:c6:c4:ca:32:5e:c9:e9:bf:12:29:e6:
                    c6:c3:63:fe:a0:55:da:7a:f1:60:98:4d:26:ed:fa:
                    70:2d
                Exponent: 65537 (0x10001)
        X509v3 extensions:
            X509v3 Key Usage: 
                Digital Signature, Key Encipherment
            X509v3 Basic Constraints: 
                CA:FALSE
            Netscape Cert Type: 
                SSL Server
            Netscape Comment: 
                OpenSSL Generated Server Certificate
            X509v3 Subject Key Identifier: 
                53:3F:ED:5D:09:07:B3:65:7B:AB:45:C9:24:5B:09:77:80:0A:96:ED
            X509v3 Authority Key Identifier: 
                keyid:F4:A7:C0:CC:91:46:AF:64:F3:91:F2:27:F8:C8:B2:6F:8A:87:32:73
                DirName:/C=DE/ST=Hessen/O=privacyidea/CN=CA001
                serial:FB:C8:EB:AC:83:CD:12:07

            X509v3 Extended Key Usage: 
                TLS Web Server Authentication
    Signature Algorithm: sha256WithRSAEncryption
         3b:9e:fb:ec:29:93:ae:b5:a1:21:73:81:a0:d6:7a:4a:44:77:
         da:1b:84:c4:1b:c2:50:db:9d:73:4b:04:64:c6:93:79:8b:91:
         22:1e:87:cc:65:33:f0:47:aa:69:fd:44:18:d7:af:4c:59:3f:
         d4:a3:ad:3a:90:c0:49:64:68:6c:93:95:ce:af:85:42:ea:02:
         5c:37:a5:4e:4b:ee:c0:49:cc:c1:16:ea:c4:54:01:50:0a:dc:
         56:88:c4:20:15:88:aa:0c:1e:23:6a:9c:87:5b:ee:69:a4:4c:
         fa:3e:8f:65:1d:bd:08:b6:66:ff:a1:4c:1d:f0:15:51:14:09:
         62:1f:da:7e:42:ca:38:03:70:2d:35:f9:d7:c7:0a:30:2a:01:
         99:f7:86:0e:65:cd:a7:25:b4:b1:c6:9f:da:7a:1a:83:f5:35:
         d1:53:63:76:1a:6a:3f:b8:77:80:e5:fa:38:78:c3:2e:25:c9:
         4c:71:af:70:cb:3e:94:25:70:9e:ea:c8:bf:db:19:ba:ab:80:
         ba:3b:5a:b0:b3:01:1b:3e:a6:88:c0:9c:b2:47:37:e6:5f:ff:
         be:df:2f:3f:ee:36:de:9d:4e:7c:ae:c6:b2:1a:c4:25:aa:39:
         2a:a6:0f:e8:08:1a:bf:c6:e2:68:52:bd:54:25:af:10:37:74:
         87:ba:17:15
-----BEGIN CERTIFICATE-----
MIIEJjCCAw6gAwIBAgIEEAAA5zANBgkqhkiG9w0BAQsFADBEMQswCQYDVQQGEwJE
RTEPMA0GA1UECAwGSGVzc2VuMRQwEgYDVQQKDAtwcml2YWN5aWRlYTEOMAwGA1UE
AwwFQ0EwMDEwHhcNMTkwMjA4MjE1NTQyWhcNMjAwMjA4MjE1NTQyWjBUMQswCQYD
VQQGEwJERTEPMA0GA1UECAwGSGVzc2VuMRQwEgYDVQQKDAtwcml2YWN5aWRlYTEe
MBwGA1UEAwwVcmVxdWVzdGVyLmxvY2FsZG9tYWluMIIBIjANBgkqhkiG9w0BAQEF
AAOCAQ8AMIIBCgKCAQEAzb4UT/rOAT9CIhsdnK/dktJ/22y3PjlDQ2sTA/EF9Ad0
vHZpKAuvGY7X/OPNxljyyn8IbVP8BwJEJMa0NEyMBP4zDkDiILoCc1r39U9jbszG
tt9UHTc5fVE2Jl+93D+oi2uirrad1iHn30G4eigqaEjKqC3t4elGXlpybbSEOIeR
/ZQRCyiExsIvKvsB+TZ6CXXRM4g8c0FbyL+UiXCh8MC5LlBTHrEXZGn0LYHgqQ0O
Mum6VYqF8RtvSXm0f4jDDT5UiJs9HziMBPPuamMr9cbbtIOqxHhBOn1L4cg+ccob
YVnqxsTKMl7J6b8SKebGw2P+oFXaevFgmE0m7fpwLQIDAQABo4IBDjCCAQowCwYD
VR0PBAQDAgWgMAkGA1UdEwQCMAAwEQYJYIZIAYb4QgEBBAQDAgZAMDMGCWCGSAGG
+EIBDQQmFiRPcGVuU1NMIEdlbmVyYXRlZCBTZXJ2ZXIgQ2VydGlmaWNhdGUwHQYD
VR0OBBYEFFM/7V0JB7Nle6tFySRbCXeACpbtMHQGA1UdIwRtMGuAFPSnwMyRRq9k
85HyJ/jIsm+KhzJzoUikRjBEMQswCQYDVQQGEwJERTEPMA0GA1UECAwGSGVzc2Vu
MRQwEgYDVQQKDAtwcml2YWN5aWRlYTEOMAwGA1UEAwwFQ0EwMDGCCQD7yOusg80S
BzATBgNVHSUEDDAKBggrBgEFBQcDATANBgkqhkiG9w0BAQsFAAOCAQEAO5777CmT
rrWhIXOBoNZ6SkR32huExBvCUNudc0sEZMaTeYuRIh6HzGUz8Eeqaf1EGNevTFk/
1KOtOpDASWRobJOVzq+FQuoCXDelTkvuwEnMwRbqxFQBUArcVojEIBWIqgweI2qc
h1vuaaRM+j6PZR29CLZm/6FMHfAVURQJYh/afkLKOANwLTX518cKMCoBmfeGDmXN
pyW0scaf2noag/U10VNjdhpqP7h3gOX6OHjDLiXJTHGvcMs+lCVwnurIv9sZuquA
ujtasLMBGz6miMCcskc35l//vt8vP+423p1OfK7GshrEJao5KqYP6Agav8biaFK9
VCWvEDd0h7oXFQ==
-----END CERTIFICATE-----
