Certificate:
    Data:
        Version: 3 (0x2)
        Serial Number: 268435681 (0x100000e1)
    Signature Algorithm: sha256WithRSAEncryption
        Issuer: C=DE, ST=Hessen, O=privacyidea, CN=CA001
        Validity
            Not Before: Feb  8 21:37:40 2019 GMT
            Not After : Feb  8 21:37:40 2020 GMT
        Subject: C=DE, ST=Hessen, O=privacyidea, CN=usercert
        Subject Public Key Info:
            Public Key Algorithm: rsaEncryption
                Public-Key: (2048 bit)
                Modulus:
                    00:dc:2f:d1:5f:29:97:d4:7c:c3:53:c8:30:bd:4b:
                    67:70:2c:24:6b:b8:5e:eb:21:7a:48:12:56:7c:81:
                    5c:48:75:b6:68:eb:f6:f2:98:4e:50:51:d1:7f:6c:
                    73:f3:0a:a7:ae:be:48:5e:e5:d6:e1:d9:2a:7c:32:
                    6e:4e:fd:08:f6:5a:54:49:23:73:c3:b9:07:18:d1:
                    ef:b3:ac:f8:8a:dc:94:96:a4:90:3a:8e:74:df:e6:
                    0d:37:1b:bd:5b:b7:25:1a:56:39:da:6f:91:aa:5e:
                    1c:74:f3:f9:7c:14:01:83:12:65:76:c7:bb:fe:36:
                    5b:95:e9:72:65:83:ed:3e:98:30:71:fa:87:dd:a3:
                    36:5a:30:03:2e:26:e0:61:d1:bf:02:3f:b6:06:1f:
                    4a:89:28:1c:5c:a2:ff:4e:be:94:e6:8c:e0:da:82:
                    f1:9d:29:32:48:30:73:b4:04:f6:42:1e:be:f7:e2:
                    32:32:27:3c:9d:89:2f:70:3e:85:9a:6f:5c:c5:09:
                    c0:8c:32:2f:72:22:c9:d2:95:1f:b6:ac:72:60:72:
                    b7:82:4d:6b:ce:5b:e3:00:d0:d2:2f:58:c6:e0:10:
                    e5:51:ca:4d:3b:2e:e6:7e:ab:84:d6:56:f1:93:35:
                    a0:93:64:26:81:75:2f:91:b5:16:06:38:0b:db:cc:
                    2d:07
                Exponent: 65537 (0x10001)
        X509v3 extensions:
            X509v3 Key Usage: 
                Digital Signature, Key Encipherment
            X509v3 Basic Constraints: 
                CA:FALSE
            Netscape Cert Type: 
                SSL Server
            Netscape Comment: 
                OpenSSL Generated Server Certificate
            X509v3 Subject Key Identifier: 
                FC:14:D1:F0:4B:8D:00:90:F2:F5:B8:71:9E:4E:97:C3:92:54:AD:0B
            X509v3 Authority Key Identifier: 
                keyid:F4:A7:C0:CC:91:46:AF:64:F3:91:F2:27:F8:C8:B2:6F:8A:87:32:73
                DirName:/C=DE/ST=Hessen/O=privacyidea/CN=CA001
                serial:FB:C8:EB:AC:83:CD:12:07

            X509v3 Extended Key Usage: 
                TLS Web Server Authentication
    Signature Algorithm: sha256WithRSAEncryption
         67:7e:02:55:c1:30:82:2e:0d:7f:80:55:75:b1:40:50:1a:ca:
         ca:97:bb:3d:d0:ee:ca:5c:b7:60:d5:ff:02:56:54:23:ab:3c:
         12:41:b3:11:43:d5:14:f6:2e:68:67:46:6a:73:40:7d:05:5d:
         33:eb:ff:a2:4e:2a:fa:89:d2:64:2f:a6:f8:eb:03:88:d4:7d:
         f8:94:dd:d3:82:e5:08:b3:51:52:45:0a:11:5c:6e:1a:9d:3f:
         ae:e7:a4:ad:d4:5f:62:ba:72:e1:0f:31:cb:21:72:ba:4f:44:
         68:87:81:4b:5f:b9:4c:0b:a0:41:c0:0c:f4:92:87:fd:c9:12:
         02:96:39:63:c9:90:52:07:62:e5:2a:4a:b4:19:d6:88:ba:bb:
         da:fd:05:45:6e:3d:2e:ba:b2:87:21:d7:1b:35:c3:4c:91:d0:
         c3:37:5b:f3:ad:f7:cf:4f:7a:68:bf:9e:26:50:87:7c:d0:f5:
         5a:c1:0e:bf:9f:44:22:23:b8:9d:b8:f5:d2:4b:bf:0e:3b:a1:
         0c:b9:ff:56:f7:1a:98:6d:1b:0a:35:cd:70:0c:d2:cd:32:9b:
         ea:ba:c8:d1:d9:01:0a:83:ff:e2:76:6d:4c:35:29:6f:a5:2b:
         2d:83:86:be:0f:01:b7:71:ec:4e:65:f4:6b:4e:3a:59:9f:0e:
         b0:8e:9b:77
-----BEGIN CERTIFICATE-----
MIIEGTCCAwGgAwIBAgIEEAAA4TANBgkqhkiG9w0BAQsFADBEMQswCQYDVQQGEwJE
RTEPMA0GA1UECAwGSGVzc2VuMRQwEgYDVQQKDAtwcml2YWN5aWRlYTEOMAwGA1UE
AwwFQ0EwMDEwHhcNMTkwMjA4MjEzNzQwWhcNMjAwMjA4MjEzNzQwWjBHMQswCQYD
VQQGEwJERTEPMA0GA1UECAwGSGVzc2VuMRQwEgYDVQQKDAtwcml2YWN5aWRlYTER
MA8GA1UEAwwIdXNlcmNlcnQwggEiMA0GCSqGSIb3DQEBAQUAA4IBDwAwggEKAoIB
AQDcL9FfKZfUfMNTyDC9S2dwLCRruF7rIXpIElZ8gVxIdbZo6/bymE5QUdF/bHPz
Cqeuvkhe5dbh2Sp8Mm5O/Qj2WlRJI3PDuQcY0e+zrPiK3JSWpJA6jnTf5g03G71b
tyUaVjnab5GqXhx08/l8FAGDEmV2x7v+NluV6XJlg+0+mDBx+ofdozZaMAMuJuBh
0b8CP7YGH0qJKBxcov9OvpTmjODagvGdKTJIMHO0BPZCHr734jIyJzydiS9wPoWa
b1zFCcCMMi9yIsnSlR+2rHJgcreCTWvOW+MA0NIvWMbgEOVRyk07LuZ+q4TWVvGT
NaCTZCaBdS+RtRYGOAvbzC0HAgMBAAGjggEOMIIBCjALBgNVHQ8EBAMCBaAwCQYD
VR0TBAIwADARBglghkgBhvhCAQEEBAMCBkAwMwYJYIZIAYb4QgENBCYWJE9wZW5T
U0wgR2VuZXJhdGVkIFNlcnZlciBDZXJ0aWZpY2F0ZTAdBgNVHQ4EFgQU/BTR8EuN
AJDy9bhxnk6Xw5JUrQswdAYDVR0jBG0wa4AU9KfAzJFGr2TzkfIn+Miyb4qHMnOh
SKRGMEQxCzAJBgNVBAYTAkRFMQ8wDQYDVQQIDAZIZXNzZW4xFDASBgNVBAoMC3By
aXZhY3lpZGVhMQ4wDAYDVQQDDAVDQTAwMYIJAPvI66yDzRIHMBMGA1UdJQQMMAoG
CCsGAQUFBwMBMA0GCSqGSIb3DQEBCwUAA4IBAQBnfgJVwTCCLg1/gFV1sUBQGsrK
l7s90O7KXLdg1f8CVlQjqzwSQbMRQ9UU9i5oZ0Zqc0B9BV0z6/+iTir6idJkL6b4
6wOI1H34lN3TguUIs1FSRQoRXG4anT+u56St1F9iunLhDzHLIXK6T0Roh4FLX7lM
C6BBwAz0kof9yRICljljyZBSB2LlKkq0GdaIurva/QVFbj0uurKHIdcbNcNMkdDD
N1vzrffPT3pov54mUId80PVawQ6/n0QiI7iduPXSS78OO6EMuf9W9xqYbRsKNc1w
DNLNMpvqusjR2QEKg//idm1MNSlvpSstg4a+DwG3cexOZfRrTjpZnw6wjpt3
-----END CERTIFICATE-----
